ARM GAS  C:\cygwin64\tmp\ccWIv0rg.s 			page 1


   1              		.cpu cortex-m4
   2              		.eabi_attribute 27, 1
   3              		.eabi_attribute 28, 1
   4              		.eabi_attribute 20, 1
   5              		.eabi_attribute 21, 1
   6              		.eabi_attribute 23, 3
   7              		.eabi_attribute 24, 1
   8              		.eabi_attribute 25, 1
   9              		.eabi_attribute 26, 1
  10              		.eabi_attribute 30, 1
  11              		.eabi_attribute 34, 1
  12              		.eabi_attribute 18, 4
  13              		.file	"stm32l4xx_hal_gpio.c"
  14              		.text
  15              	.Ltext0:
  16              		.cfi_sections	.debug_frame
  17              		.section	.text.HAL_GPIO_Init,"ax",%progbits
  18              		.align	1
  19              		.global	HAL_GPIO_Init
  20              		.arch armv7e-m
  21              		.syntax unified
  22              		.thumb
  23              		.thumb_func
  24              		.fpu fpv4-sp-d16
  26              	HAL_GPIO_Init:
  27              	.LVL0:
  28              	.LFB132:
  29              		.file 1 "Drivers/STM32L4xx_HAL_Driver/Src/stm32l4xx_hal_gpio.c"
   1:Drivers/STM32L4xx_HAL_Driver/Src/stm32l4xx_hal_gpio.c **** /**
   2:Drivers/STM32L4xx_HAL_Driver/Src/stm32l4xx_hal_gpio.c ****   ******************************************************************************
   3:Drivers/STM32L4xx_HAL_Driver/Src/stm32l4xx_hal_gpio.c ****   * @file    stm32l4xx_hal_gpio.c
   4:Drivers/STM32L4xx_HAL_Driver/Src/stm32l4xx_hal_gpio.c ****   * @author  MCD Application Team
   5:Drivers/STM32L4xx_HAL_Driver/Src/stm32l4xx_hal_gpio.c ****   * @brief   GPIO HAL module driver.
   6:Drivers/STM32L4xx_HAL_Driver/Src/stm32l4xx_hal_gpio.c ****   *          This file provides firmware functions to manage the following
   7:Drivers/STM32L4xx_HAL_Driver/Src/stm32l4xx_hal_gpio.c ****   *          functionalities of the General Purpose Input/Output (GPIO) peripheral:
   8:Drivers/STM32L4xx_HAL_Driver/Src/stm32l4xx_hal_gpio.c ****   *           + Initialization and de-initialization functions
   9:Drivers/STM32L4xx_HAL_Driver/Src/stm32l4xx_hal_gpio.c ****   *           + IO operation functions
  10:Drivers/STM32L4xx_HAL_Driver/Src/stm32l4xx_hal_gpio.c ****   *
  11:Drivers/STM32L4xx_HAL_Driver/Src/stm32l4xx_hal_gpio.c ****   @verbatim
  12:Drivers/STM32L4xx_HAL_Driver/Src/stm32l4xx_hal_gpio.c ****   ==============================================================================
  13:Drivers/STM32L4xx_HAL_Driver/Src/stm32l4xx_hal_gpio.c ****                     ##### GPIO Peripheral features #####
  14:Drivers/STM32L4xx_HAL_Driver/Src/stm32l4xx_hal_gpio.c ****   ==============================================================================
  15:Drivers/STM32L4xx_HAL_Driver/Src/stm32l4xx_hal_gpio.c ****   [..]
  16:Drivers/STM32L4xx_HAL_Driver/Src/stm32l4xx_hal_gpio.c ****     (+) Each port bit of the general-purpose I/O (GPIO) ports can be individually
  17:Drivers/STM32L4xx_HAL_Driver/Src/stm32l4xx_hal_gpio.c ****         configured by software in several modes:
  18:Drivers/STM32L4xx_HAL_Driver/Src/stm32l4xx_hal_gpio.c ****         (++) Input mode
  19:Drivers/STM32L4xx_HAL_Driver/Src/stm32l4xx_hal_gpio.c ****         (++) Analog mode
  20:Drivers/STM32L4xx_HAL_Driver/Src/stm32l4xx_hal_gpio.c ****         (++) Output mode
  21:Drivers/STM32L4xx_HAL_Driver/Src/stm32l4xx_hal_gpio.c ****         (++) Alternate function mode
  22:Drivers/STM32L4xx_HAL_Driver/Src/stm32l4xx_hal_gpio.c ****         (++) External interrupt/event lines
  23:Drivers/STM32L4xx_HAL_Driver/Src/stm32l4xx_hal_gpio.c **** 
  24:Drivers/STM32L4xx_HAL_Driver/Src/stm32l4xx_hal_gpio.c ****     (+) During and just after reset, the alternate functions and external interrupt
  25:Drivers/STM32L4xx_HAL_Driver/Src/stm32l4xx_hal_gpio.c ****         lines are not active and the I/O ports are configured in input floating mode.
  26:Drivers/STM32L4xx_HAL_Driver/Src/stm32l4xx_hal_gpio.c **** 
  27:Drivers/STM32L4xx_HAL_Driver/Src/stm32l4xx_hal_gpio.c ****     (+) All GPIO pins have weak internal pull-up and pull-down resistors, which can be
  28:Drivers/STM32L4xx_HAL_Driver/Src/stm32l4xx_hal_gpio.c ****         activated or not.
  29:Drivers/STM32L4xx_HAL_Driver/Src/stm32l4xx_hal_gpio.c **** 
ARM GAS  C:\cygwin64\tmp\ccWIv0rg.s 			page 2


  30:Drivers/STM32L4xx_HAL_Driver/Src/stm32l4xx_hal_gpio.c ****     (+) In Output or Alternate mode, each IO can be configured on open-drain or push-pull
  31:Drivers/STM32L4xx_HAL_Driver/Src/stm32l4xx_hal_gpio.c ****         type and the IO speed can be selected depending on the VDD value.
  32:Drivers/STM32L4xx_HAL_Driver/Src/stm32l4xx_hal_gpio.c **** 
  33:Drivers/STM32L4xx_HAL_Driver/Src/stm32l4xx_hal_gpio.c ****     (+) The microcontroller IO pins are connected to onboard peripherals/modules through a
  34:Drivers/STM32L4xx_HAL_Driver/Src/stm32l4xx_hal_gpio.c ****         multiplexer that allows only one peripheral alternate function (AF) connected
  35:Drivers/STM32L4xx_HAL_Driver/Src/stm32l4xx_hal_gpio.c ****        to an IO pin at a time. In this way, there can be no conflict between peripherals
  36:Drivers/STM32L4xx_HAL_Driver/Src/stm32l4xx_hal_gpio.c ****        sharing the same IO pin.
  37:Drivers/STM32L4xx_HAL_Driver/Src/stm32l4xx_hal_gpio.c **** 
  38:Drivers/STM32L4xx_HAL_Driver/Src/stm32l4xx_hal_gpio.c ****     (+) All ports have external interrupt/event capability. To use external interrupt
  39:Drivers/STM32L4xx_HAL_Driver/Src/stm32l4xx_hal_gpio.c ****         lines, the port must be configured in input mode. All available GPIO pins are
  40:Drivers/STM32L4xx_HAL_Driver/Src/stm32l4xx_hal_gpio.c ****         connected to the 16 external interrupt/event lines from EXTI0 to EXTI15.
  41:Drivers/STM32L4xx_HAL_Driver/Src/stm32l4xx_hal_gpio.c **** 
  42:Drivers/STM32L4xx_HAL_Driver/Src/stm32l4xx_hal_gpio.c ****     (+) The external interrupt/event controller consists of up to 39 edge detectors
  43:Drivers/STM32L4xx_HAL_Driver/Src/stm32l4xx_hal_gpio.c ****         (16 lines are connected to GPIO) for generating event/interrupt requests (each
  44:Drivers/STM32L4xx_HAL_Driver/Src/stm32l4xx_hal_gpio.c ****         input line can be independently configured to select the type (interrupt or event)
  45:Drivers/STM32L4xx_HAL_Driver/Src/stm32l4xx_hal_gpio.c ****         and the corresponding trigger event (rising or falling or both). Each line can
  46:Drivers/STM32L4xx_HAL_Driver/Src/stm32l4xx_hal_gpio.c ****         also be masked independently.
  47:Drivers/STM32L4xx_HAL_Driver/Src/stm32l4xx_hal_gpio.c **** 
  48:Drivers/STM32L4xx_HAL_Driver/Src/stm32l4xx_hal_gpio.c ****                      ##### How to use this driver #####
  49:Drivers/STM32L4xx_HAL_Driver/Src/stm32l4xx_hal_gpio.c ****   ==============================================================================
  50:Drivers/STM32L4xx_HAL_Driver/Src/stm32l4xx_hal_gpio.c ****   [..]
  51:Drivers/STM32L4xx_HAL_Driver/Src/stm32l4xx_hal_gpio.c ****     (#) Enable the GPIO AHB clock using the following function: __HAL_RCC_GPIOx_CLK_ENABLE().
  52:Drivers/STM32L4xx_HAL_Driver/Src/stm32l4xx_hal_gpio.c **** 
  53:Drivers/STM32L4xx_HAL_Driver/Src/stm32l4xx_hal_gpio.c ****     (#) Configure the GPIO pin(s) using HAL_GPIO_Init().
  54:Drivers/STM32L4xx_HAL_Driver/Src/stm32l4xx_hal_gpio.c ****         (++) Configure the IO mode using "Mode" member from GPIO_InitTypeDef structure
  55:Drivers/STM32L4xx_HAL_Driver/Src/stm32l4xx_hal_gpio.c ****         (++) Activate Pull-up, Pull-down resistor using "Pull" member from GPIO_InitTypeDef
  56:Drivers/STM32L4xx_HAL_Driver/Src/stm32l4xx_hal_gpio.c ****              structure.
  57:Drivers/STM32L4xx_HAL_Driver/Src/stm32l4xx_hal_gpio.c ****         (++) In case of Output or alternate function mode selection: the speed is
  58:Drivers/STM32L4xx_HAL_Driver/Src/stm32l4xx_hal_gpio.c ****              configured through "Speed" member from GPIO_InitTypeDef structure.
  59:Drivers/STM32L4xx_HAL_Driver/Src/stm32l4xx_hal_gpio.c ****         (++) In alternate mode is selection, the alternate function connected to the IO
  60:Drivers/STM32L4xx_HAL_Driver/Src/stm32l4xx_hal_gpio.c ****              is configured through "Alternate" member from GPIO_InitTypeDef structure.
  61:Drivers/STM32L4xx_HAL_Driver/Src/stm32l4xx_hal_gpio.c ****         (++) Analog mode is required when a pin is to be used as ADC channel
  62:Drivers/STM32L4xx_HAL_Driver/Src/stm32l4xx_hal_gpio.c ****              or DAC output.
  63:Drivers/STM32L4xx_HAL_Driver/Src/stm32l4xx_hal_gpio.c ****         (++) In case of external interrupt/event selection the "Mode" member from
  64:Drivers/STM32L4xx_HAL_Driver/Src/stm32l4xx_hal_gpio.c ****              GPIO_InitTypeDef structure select the type (interrupt or event) and
  65:Drivers/STM32L4xx_HAL_Driver/Src/stm32l4xx_hal_gpio.c ****              the corresponding trigger event (rising or falling or both).
  66:Drivers/STM32L4xx_HAL_Driver/Src/stm32l4xx_hal_gpio.c **** 
  67:Drivers/STM32L4xx_HAL_Driver/Src/stm32l4xx_hal_gpio.c ****     (#) In case of external interrupt/event mode selection, configure NVIC IRQ priority
  68:Drivers/STM32L4xx_HAL_Driver/Src/stm32l4xx_hal_gpio.c ****         mapped to the EXTI line using HAL_NVIC_SetPriority() and enable it using
  69:Drivers/STM32L4xx_HAL_Driver/Src/stm32l4xx_hal_gpio.c ****         HAL_NVIC_EnableIRQ().
  70:Drivers/STM32L4xx_HAL_Driver/Src/stm32l4xx_hal_gpio.c **** 
  71:Drivers/STM32L4xx_HAL_Driver/Src/stm32l4xx_hal_gpio.c ****     (#) To get the level of a pin configured in input mode use HAL_GPIO_ReadPin().
  72:Drivers/STM32L4xx_HAL_Driver/Src/stm32l4xx_hal_gpio.c **** 
  73:Drivers/STM32L4xx_HAL_Driver/Src/stm32l4xx_hal_gpio.c ****     (#) To set/reset the level of a pin configured in output mode use
  74:Drivers/STM32L4xx_HAL_Driver/Src/stm32l4xx_hal_gpio.c ****         HAL_GPIO_WritePin()/HAL_GPIO_TogglePin().
  75:Drivers/STM32L4xx_HAL_Driver/Src/stm32l4xx_hal_gpio.c **** 
  76:Drivers/STM32L4xx_HAL_Driver/Src/stm32l4xx_hal_gpio.c ****    (#) To lock pin configuration until next reset use HAL_GPIO_LockPin().
  77:Drivers/STM32L4xx_HAL_Driver/Src/stm32l4xx_hal_gpio.c **** 
  78:Drivers/STM32L4xx_HAL_Driver/Src/stm32l4xx_hal_gpio.c ****     (#) During and just after reset, the alternate functions are not
  79:Drivers/STM32L4xx_HAL_Driver/Src/stm32l4xx_hal_gpio.c ****         active and the GPIO pins are configured in input floating mode (except JTAG
  80:Drivers/STM32L4xx_HAL_Driver/Src/stm32l4xx_hal_gpio.c ****         pins).
  81:Drivers/STM32L4xx_HAL_Driver/Src/stm32l4xx_hal_gpio.c **** 
  82:Drivers/STM32L4xx_HAL_Driver/Src/stm32l4xx_hal_gpio.c ****     (#) The LSE oscillator pins OSC32_IN and OSC32_OUT can be used as general purpose
  83:Drivers/STM32L4xx_HAL_Driver/Src/stm32l4xx_hal_gpio.c ****         (PC14 and PC15, respectively) when the LSE oscillator is off. The LSE has
  84:Drivers/STM32L4xx_HAL_Driver/Src/stm32l4xx_hal_gpio.c ****         priority over the GPIO function.
  85:Drivers/STM32L4xx_HAL_Driver/Src/stm32l4xx_hal_gpio.c **** 
  86:Drivers/STM32L4xx_HAL_Driver/Src/stm32l4xx_hal_gpio.c ****     (#) The HSE oscillator pins OSC_IN/OSC_OUT can be used as
ARM GAS  C:\cygwin64\tmp\ccWIv0rg.s 			page 3


  87:Drivers/STM32L4xx_HAL_Driver/Src/stm32l4xx_hal_gpio.c ****         general purpose PH0 and PH1, respectively, when the HSE oscillator is off.
  88:Drivers/STM32L4xx_HAL_Driver/Src/stm32l4xx_hal_gpio.c ****         The HSE has priority over the GPIO function.
  89:Drivers/STM32L4xx_HAL_Driver/Src/stm32l4xx_hal_gpio.c **** 
  90:Drivers/STM32L4xx_HAL_Driver/Src/stm32l4xx_hal_gpio.c ****   @endverbatim
  91:Drivers/STM32L4xx_HAL_Driver/Src/stm32l4xx_hal_gpio.c ****   ******************************************************************************
  92:Drivers/STM32L4xx_HAL_Driver/Src/stm32l4xx_hal_gpio.c ****   * @attention
  93:Drivers/STM32L4xx_HAL_Driver/Src/stm32l4xx_hal_gpio.c ****   *
  94:Drivers/STM32L4xx_HAL_Driver/Src/stm32l4xx_hal_gpio.c ****   * <h2><center>&copy; Copyright (c) 2017 STMicroelectronics.
  95:Drivers/STM32L4xx_HAL_Driver/Src/stm32l4xx_hal_gpio.c ****   * All rights reserved.</center></h2>
  96:Drivers/STM32L4xx_HAL_Driver/Src/stm32l4xx_hal_gpio.c ****   *
  97:Drivers/STM32L4xx_HAL_Driver/Src/stm32l4xx_hal_gpio.c ****   * This software component is licensed by ST under BSD 3-Clause license,
  98:Drivers/STM32L4xx_HAL_Driver/Src/stm32l4xx_hal_gpio.c ****   * the "License"; You may not use this file except in compliance with the
  99:Drivers/STM32L4xx_HAL_Driver/Src/stm32l4xx_hal_gpio.c ****   * License. You may obtain a copy of the License at:
 100:Drivers/STM32L4xx_HAL_Driver/Src/stm32l4xx_hal_gpio.c ****   *                        opensource.org/licenses/BSD-3-Clause
 101:Drivers/STM32L4xx_HAL_Driver/Src/stm32l4xx_hal_gpio.c ****   *
 102:Drivers/STM32L4xx_HAL_Driver/Src/stm32l4xx_hal_gpio.c ****   ******************************************************************************
 103:Drivers/STM32L4xx_HAL_Driver/Src/stm32l4xx_hal_gpio.c ****   */
 104:Drivers/STM32L4xx_HAL_Driver/Src/stm32l4xx_hal_gpio.c **** 
 105:Drivers/STM32L4xx_HAL_Driver/Src/stm32l4xx_hal_gpio.c **** /* Includes ------------------------------------------------------------------*/
 106:Drivers/STM32L4xx_HAL_Driver/Src/stm32l4xx_hal_gpio.c **** #include "stm32l4xx_hal.h"
 107:Drivers/STM32L4xx_HAL_Driver/Src/stm32l4xx_hal_gpio.c **** 
 108:Drivers/STM32L4xx_HAL_Driver/Src/stm32l4xx_hal_gpio.c **** /** @addtogroup STM32L4xx_HAL_Driver
 109:Drivers/STM32L4xx_HAL_Driver/Src/stm32l4xx_hal_gpio.c ****   * @{
 110:Drivers/STM32L4xx_HAL_Driver/Src/stm32l4xx_hal_gpio.c ****   */
 111:Drivers/STM32L4xx_HAL_Driver/Src/stm32l4xx_hal_gpio.c **** 
 112:Drivers/STM32L4xx_HAL_Driver/Src/stm32l4xx_hal_gpio.c **** /** @defgroup GPIO GPIO
 113:Drivers/STM32L4xx_HAL_Driver/Src/stm32l4xx_hal_gpio.c ****   * @brief GPIO HAL module driver
 114:Drivers/STM32L4xx_HAL_Driver/Src/stm32l4xx_hal_gpio.c ****   * @{
 115:Drivers/STM32L4xx_HAL_Driver/Src/stm32l4xx_hal_gpio.c ****   */
 116:Drivers/STM32L4xx_HAL_Driver/Src/stm32l4xx_hal_gpio.c **** /** MISRA C:2012 deviation rule has been granted for following rules:
 117:Drivers/STM32L4xx_HAL_Driver/Src/stm32l4xx_hal_gpio.c ****   * Rule-12.2 - Medium: RHS argument is in interval [0,INF] which is out of
 118:Drivers/STM32L4xx_HAL_Driver/Src/stm32l4xx_hal_gpio.c ****   * range of the shift operator in following API :
 119:Drivers/STM32L4xx_HAL_Driver/Src/stm32l4xx_hal_gpio.c ****   * HAL_GPIO_Init
 120:Drivers/STM32L4xx_HAL_Driver/Src/stm32l4xx_hal_gpio.c ****   * HAL_GPIO_DeInit
 121:Drivers/STM32L4xx_HAL_Driver/Src/stm32l4xx_hal_gpio.c ****   */
 122:Drivers/STM32L4xx_HAL_Driver/Src/stm32l4xx_hal_gpio.c **** 
 123:Drivers/STM32L4xx_HAL_Driver/Src/stm32l4xx_hal_gpio.c **** #ifdef HAL_GPIO_MODULE_ENABLED
 124:Drivers/STM32L4xx_HAL_Driver/Src/stm32l4xx_hal_gpio.c **** 
 125:Drivers/STM32L4xx_HAL_Driver/Src/stm32l4xx_hal_gpio.c **** /* Private typedef -----------------------------------------------------------*/
 126:Drivers/STM32L4xx_HAL_Driver/Src/stm32l4xx_hal_gpio.c **** /* Private defines -----------------------------------------------------------*/
 127:Drivers/STM32L4xx_HAL_Driver/Src/stm32l4xx_hal_gpio.c **** /** @defgroup GPIO_Private_Defines GPIO Private Defines
 128:Drivers/STM32L4xx_HAL_Driver/Src/stm32l4xx_hal_gpio.c ****   * @{
 129:Drivers/STM32L4xx_HAL_Driver/Src/stm32l4xx_hal_gpio.c ****   */
 130:Drivers/STM32L4xx_HAL_Driver/Src/stm32l4xx_hal_gpio.c **** #define GPIO_MODE             (0x00000003u)
 131:Drivers/STM32L4xx_HAL_Driver/Src/stm32l4xx_hal_gpio.c **** #define ANALOG_MODE           (0x00000008u)
 132:Drivers/STM32L4xx_HAL_Driver/Src/stm32l4xx_hal_gpio.c **** #define EXTI_MODE             (0x10000000u)
 133:Drivers/STM32L4xx_HAL_Driver/Src/stm32l4xx_hal_gpio.c **** #define GPIO_MODE_IT          (0x00010000u)
 134:Drivers/STM32L4xx_HAL_Driver/Src/stm32l4xx_hal_gpio.c **** #define GPIO_MODE_EVT         (0x00020000u)
 135:Drivers/STM32L4xx_HAL_Driver/Src/stm32l4xx_hal_gpio.c **** #define RISING_EDGE           (0x00100000u)
 136:Drivers/STM32L4xx_HAL_Driver/Src/stm32l4xx_hal_gpio.c **** #define FALLING_EDGE          (0x00200000u)
 137:Drivers/STM32L4xx_HAL_Driver/Src/stm32l4xx_hal_gpio.c **** #define GPIO_OUTPUT_TYPE      (0x00000010u)
 138:Drivers/STM32L4xx_HAL_Driver/Src/stm32l4xx_hal_gpio.c **** 
 139:Drivers/STM32L4xx_HAL_Driver/Src/stm32l4xx_hal_gpio.c **** #define GPIO_NUMBER           (16u)
 140:Drivers/STM32L4xx_HAL_Driver/Src/stm32l4xx_hal_gpio.c **** /**
 141:Drivers/STM32L4xx_HAL_Driver/Src/stm32l4xx_hal_gpio.c ****   * @}
 142:Drivers/STM32L4xx_HAL_Driver/Src/stm32l4xx_hal_gpio.c ****   */
 143:Drivers/STM32L4xx_HAL_Driver/Src/stm32l4xx_hal_gpio.c **** 
ARM GAS  C:\cygwin64\tmp\ccWIv0rg.s 			page 4


 144:Drivers/STM32L4xx_HAL_Driver/Src/stm32l4xx_hal_gpio.c **** /* Private macros ------------------------------------------------------------*/
 145:Drivers/STM32L4xx_HAL_Driver/Src/stm32l4xx_hal_gpio.c **** /* Private variables ---------------------------------------------------------*/
 146:Drivers/STM32L4xx_HAL_Driver/Src/stm32l4xx_hal_gpio.c **** /* Private function prototypes -----------------------------------------------*/
 147:Drivers/STM32L4xx_HAL_Driver/Src/stm32l4xx_hal_gpio.c **** /* Exported functions --------------------------------------------------------*/
 148:Drivers/STM32L4xx_HAL_Driver/Src/stm32l4xx_hal_gpio.c **** 
 149:Drivers/STM32L4xx_HAL_Driver/Src/stm32l4xx_hal_gpio.c **** /** @defgroup GPIO_Exported_Functions GPIO Exported Functions
 150:Drivers/STM32L4xx_HAL_Driver/Src/stm32l4xx_hal_gpio.c ****   * @{
 151:Drivers/STM32L4xx_HAL_Driver/Src/stm32l4xx_hal_gpio.c ****   */
 152:Drivers/STM32L4xx_HAL_Driver/Src/stm32l4xx_hal_gpio.c **** 
 153:Drivers/STM32L4xx_HAL_Driver/Src/stm32l4xx_hal_gpio.c **** /** @defgroup GPIO_Exported_Functions_Group1 Initialization/de-initialization functions
 154:Drivers/STM32L4xx_HAL_Driver/Src/stm32l4xx_hal_gpio.c ****  *  @brief    Initialization and Configuration functions
 155:Drivers/STM32L4xx_HAL_Driver/Src/stm32l4xx_hal_gpio.c ****  *
 156:Drivers/STM32L4xx_HAL_Driver/Src/stm32l4xx_hal_gpio.c **** @verbatim
 157:Drivers/STM32L4xx_HAL_Driver/Src/stm32l4xx_hal_gpio.c ****  ===============================================================================
 158:Drivers/STM32L4xx_HAL_Driver/Src/stm32l4xx_hal_gpio.c ****               ##### Initialization and de-initialization functions #####
 159:Drivers/STM32L4xx_HAL_Driver/Src/stm32l4xx_hal_gpio.c ****  ===============================================================================
 160:Drivers/STM32L4xx_HAL_Driver/Src/stm32l4xx_hal_gpio.c **** 
 161:Drivers/STM32L4xx_HAL_Driver/Src/stm32l4xx_hal_gpio.c **** @endverbatim
 162:Drivers/STM32L4xx_HAL_Driver/Src/stm32l4xx_hal_gpio.c ****   * @{
 163:Drivers/STM32L4xx_HAL_Driver/Src/stm32l4xx_hal_gpio.c ****   */
 164:Drivers/STM32L4xx_HAL_Driver/Src/stm32l4xx_hal_gpio.c **** 
 165:Drivers/STM32L4xx_HAL_Driver/Src/stm32l4xx_hal_gpio.c **** /**
 166:Drivers/STM32L4xx_HAL_Driver/Src/stm32l4xx_hal_gpio.c ****   * @brief  Initialize the GPIOx peripheral according to the specified parameters in the GPIO_Init.
 167:Drivers/STM32L4xx_HAL_Driver/Src/stm32l4xx_hal_gpio.c ****   * @param  GPIOx where x can be (A..H) to select the GPIO peripheral for STM32L4 family
 168:Drivers/STM32L4xx_HAL_Driver/Src/stm32l4xx_hal_gpio.c ****   * @param  GPIO_Init pointer to a GPIO_InitTypeDef structure that contains
 169:Drivers/STM32L4xx_HAL_Driver/Src/stm32l4xx_hal_gpio.c ****   *         the configuration information for the specified GPIO peripheral.
 170:Drivers/STM32L4xx_HAL_Driver/Src/stm32l4xx_hal_gpio.c ****   * @retval None
 171:Drivers/STM32L4xx_HAL_Driver/Src/stm32l4xx_hal_gpio.c ****   */
 172:Drivers/STM32L4xx_HAL_Driver/Src/stm32l4xx_hal_gpio.c **** void HAL_GPIO_Init(GPIO_TypeDef  *GPIOx, GPIO_InitTypeDef *GPIO_Init) {
  30              		.loc 1 172 71 view -0
  31              		.cfi_startproc
  32              		@ args = 0, pretend = 0, frame = 8
  33              		@ frame_needed = 0, uses_anonymous_args = 0
  34              		.loc 1 172 71 is_stmt 0 view .LVU1
  35 0000 F0B5     		push	{r4, r5, r6, r7, lr}
  36              	.LCFI0:
  37              		.cfi_def_cfa_offset 20
  38              		.cfi_offset 4, -20
  39              		.cfi_offset 5, -16
  40              		.cfi_offset 6, -12
  41              		.cfi_offset 7, -8
  42              		.cfi_offset 14, -4
  43 0002 83B0     		sub	sp, sp, #12
  44              	.LCFI1:
  45              		.cfi_def_cfa_offset 32
 173:Drivers/STM32L4xx_HAL_Driver/Src/stm32l4xx_hal_gpio.c ****     uint32_t position = 0x00u;
  46              		.loc 1 173 5 is_stmt 1 view .LVU2
  47              	.LVL1:
 174:Drivers/STM32L4xx_HAL_Driver/Src/stm32l4xx_hal_gpio.c ****     uint32_t iocurrent;
  48              		.loc 1 174 5 view .LVU3
 175:Drivers/STM32L4xx_HAL_Driver/Src/stm32l4xx_hal_gpio.c ****     uint32_t temp;
  49              		.loc 1 175 5 view .LVU4
 176:Drivers/STM32L4xx_HAL_Driver/Src/stm32l4xx_hal_gpio.c **** 
 177:Drivers/STM32L4xx_HAL_Driver/Src/stm32l4xx_hal_gpio.c ****     /* Check the parameters */
 178:Drivers/STM32L4xx_HAL_Driver/Src/stm32l4xx_hal_gpio.c ****     assert_param(IS_GPIO_ALL_INSTANCE(GPIOx));
  50              		.loc 1 178 5 view .LVU5
 179:Drivers/STM32L4xx_HAL_Driver/Src/stm32l4xx_hal_gpio.c ****     assert_param(IS_GPIO_PIN(GPIO_Init->Pin));
ARM GAS  C:\cygwin64\tmp\ccWIv0rg.s 			page 5


  51              		.loc 1 179 5 view .LVU6
 180:Drivers/STM32L4xx_HAL_Driver/Src/stm32l4xx_hal_gpio.c ****     assert_param(IS_GPIO_MODE(GPIO_Init->Mode));
  52              		.loc 1 180 5 view .LVU7
 181:Drivers/STM32L4xx_HAL_Driver/Src/stm32l4xx_hal_gpio.c ****     assert_param(IS_GPIO_PULL(GPIO_Init->Pull));
  53              		.loc 1 181 5 view .LVU8
 182:Drivers/STM32L4xx_HAL_Driver/Src/stm32l4xx_hal_gpio.c **** 
 183:Drivers/STM32L4xx_HAL_Driver/Src/stm32l4xx_hal_gpio.c ****     /* Configure the port pins */
 184:Drivers/STM32L4xx_HAL_Driver/Src/stm32l4xx_hal_gpio.c ****     while (((GPIO_Init->Pin) >> position) != 0x00u) {
  54              		.loc 1 184 5 view .LVU9
 173:Drivers/STM32L4xx_HAL_Driver/Src/stm32l4xx_hal_gpio.c ****     uint32_t iocurrent;
  55              		.loc 1 173 14 is_stmt 0 view .LVU10
  56 0004 0023     		movs	r3, #0
  57              		.loc 1 184 11 view .LVU11
  58 0006 97E0     		b	.L2
  59              	.LVL2:
  60              	.L4:
 185:Drivers/STM32L4xx_HAL_Driver/Src/stm32l4xx_hal_gpio.c ****         /* Get current io position */
 186:Drivers/STM32L4xx_HAL_Driver/Src/stm32l4xx_hal_gpio.c ****         iocurrent = (GPIO_Init->Pin) & (1uL << position);
 187:Drivers/STM32L4xx_HAL_Driver/Src/stm32l4xx_hal_gpio.c **** 
 188:Drivers/STM32L4xx_HAL_Driver/Src/stm32l4xx_hal_gpio.c ****         if (iocurrent != 0x00u) {
 189:Drivers/STM32L4xx_HAL_Driver/Src/stm32l4xx_hal_gpio.c ****             /*--------------------- GPIO Mode Configuration ------------------------*/
 190:Drivers/STM32L4xx_HAL_Driver/Src/stm32l4xx_hal_gpio.c ****             /* In case of Output or Alternate function mode selection */
 191:Drivers/STM32L4xx_HAL_Driver/Src/stm32l4xx_hal_gpio.c ****             if((GPIO_Init->Mode == GPIO_MODE_OUTPUT_PP) || (GPIO_Init->Mode == GPIO_MODE_AF_PP) ||
 192:Drivers/STM32L4xx_HAL_Driver/Src/stm32l4xx_hal_gpio.c ****                     (GPIO_Init->Mode == GPIO_MODE_OUTPUT_OD) || (GPIO_Init->Mode == GPIO_MODE_AF_OD
 193:Drivers/STM32L4xx_HAL_Driver/Src/stm32l4xx_hal_gpio.c ****                 /* Check the Speed parameter */
 194:Drivers/STM32L4xx_HAL_Driver/Src/stm32l4xx_hal_gpio.c ****                 assert_param(IS_GPIO_SPEED(GPIO_Init->Speed));
  61              		.loc 1 194 17 is_stmt 1 view .LVU12
 195:Drivers/STM32L4xx_HAL_Driver/Src/stm32l4xx_hal_gpio.c ****                 /* Configure the IO Speed */
 196:Drivers/STM32L4xx_HAL_Driver/Src/stm32l4xx_hal_gpio.c ****                 temp = GPIOx->OSPEEDR;
  62              		.loc 1 196 17 view .LVU13
  63              		.loc 1 196 22 is_stmt 0 view .LVU14
  64 0008 8668     		ldr	r6, [r0, #8]
  65              	.LVL3:
 197:Drivers/STM32L4xx_HAL_Driver/Src/stm32l4xx_hal_gpio.c ****                 temp &= ~(GPIO_OSPEEDR_OSPEED0 << (position * 2u));
  66              		.loc 1 197 17 is_stmt 1 view .LVU15
  67              		.loc 1 197 61 is_stmt 0 view .LVU16
  68 000a 5F00     		lsls	r7, r3, #1
  69              		.loc 1 197 48 view .LVU17
  70 000c 0325     		movs	r5, #3
  71 000e BD40     		lsls	r5, r5, r7
  72              		.loc 1 197 22 view .LVU18
  73 0010 26EA0506 		bic	r6, r6, r5
  74              	.LVL4:
 198:Drivers/STM32L4xx_HAL_Driver/Src/stm32l4xx_hal_gpio.c ****                 temp |= (GPIO_Init->Speed << (position * 2u));
  75              		.loc 1 198 17 is_stmt 1 view .LVU19
  76              		.loc 1 198 35 is_stmt 0 view .LVU20
  77 0014 CD68     		ldr	r5, [r1, #12]
  78              		.loc 1 198 43 view .LVU21
  79 0016 BD40     		lsls	r5, r5, r7
  80              		.loc 1 198 22 view .LVU22
  81 0018 3543     		orrs	r5, r5, r6
  82              	.LVL5:
 199:Drivers/STM32L4xx_HAL_Driver/Src/stm32l4xx_hal_gpio.c ****                 GPIOx->OSPEEDR = temp;
  83              		.loc 1 199 17 is_stmt 1 view .LVU23
  84              		.loc 1 199 32 is_stmt 0 view .LVU24
  85 001a 8560     		str	r5, [r0, #8]
 200:Drivers/STM32L4xx_HAL_Driver/Src/stm32l4xx_hal_gpio.c **** 
ARM GAS  C:\cygwin64\tmp\ccWIv0rg.s 			page 6


 201:Drivers/STM32L4xx_HAL_Driver/Src/stm32l4xx_hal_gpio.c ****                 /* Configure the IO Output Type */
 202:Drivers/STM32L4xx_HAL_Driver/Src/stm32l4xx_hal_gpio.c ****                 temp = GPIOx->OTYPER;
  86              		.loc 1 202 17 is_stmt 1 view .LVU25
  87              		.loc 1 202 22 is_stmt 0 view .LVU26
  88 001c 4668     		ldr	r6, [r0, #4]
  89              	.LVL6:
 203:Drivers/STM32L4xx_HAL_Driver/Src/stm32l4xx_hal_gpio.c ****                 temp &= ~(GPIO_OTYPER_OT0 << position) ;
  90              		.loc 1 203 17 is_stmt 1 view .LVU27
  91              		.loc 1 203 22 is_stmt 0 view .LVU28
  92 001e 26EA0406 		bic	r6, r6, r4
  93              	.LVL7:
 204:Drivers/STM32L4xx_HAL_Driver/Src/stm32l4xx_hal_gpio.c ****                 temp |= (((GPIO_Init->Mode & GPIO_OUTPUT_TYPE) >> 4u) << position);
  94              		.loc 1 204 17 is_stmt 1 view .LVU29
  95              		.loc 1 204 37 is_stmt 0 view .LVU30
  96 0022 4D68     		ldr	r5, [r1, #4]
  97              		.loc 1 204 64 view .LVU31
  98 0024 C5F30014 		ubfx	r4, r5, #4, #1
  99              		.loc 1 204 71 view .LVU32
 100 0028 9C40     		lsls	r4, r4, r3
 101              		.loc 1 204 22 view .LVU33
 102 002a 3443     		orrs	r4, r4, r6
 103              	.LVL8:
 205:Drivers/STM32L4xx_HAL_Driver/Src/stm32l4xx_hal_gpio.c ****                 GPIOx->OTYPER = temp;
 104              		.loc 1 205 17 is_stmt 1 view .LVU34
 105              		.loc 1 205 31 is_stmt 0 view .LVU35
 106 002c 4460     		str	r4, [r0, #4]
 107              	.LVL9:
 108              	.L5:
 206:Drivers/STM32L4xx_HAL_Driver/Src/stm32l4xx_hal_gpio.c ****             }
 207:Drivers/STM32L4xx_HAL_Driver/Src/stm32l4xx_hal_gpio.c **** 
 208:Drivers/STM32L4xx_HAL_Driver/Src/stm32l4xx_hal_gpio.c **** #if defined(STM32L471xx) || defined(STM32L475xx) || defined(STM32L476xx) || defined(STM32L485xx) ||
 209:Drivers/STM32L4xx_HAL_Driver/Src/stm32l4xx_hal_gpio.c **** 
 210:Drivers/STM32L4xx_HAL_Driver/Src/stm32l4xx_hal_gpio.c ****             /* In case of Analog mode, check if ADC control mode is selected */
 211:Drivers/STM32L4xx_HAL_Driver/Src/stm32l4xx_hal_gpio.c ****             if((GPIO_Init->Mode & GPIO_MODE_ANALOG) == GPIO_MODE_ANALOG) {
 212:Drivers/STM32L4xx_HAL_Driver/Src/stm32l4xx_hal_gpio.c ****                 /* Configure the IO Output Type */
 213:Drivers/STM32L4xx_HAL_Driver/Src/stm32l4xx_hal_gpio.c ****                 temp = GPIOx->ASCR;
 214:Drivers/STM32L4xx_HAL_Driver/Src/stm32l4xx_hal_gpio.c ****                 temp &= ~(GPIO_ASCR_ASC0 << position) ;
 215:Drivers/STM32L4xx_HAL_Driver/Src/stm32l4xx_hal_gpio.c ****                 temp |= (((GPIO_Init->Mode & ANALOG_MODE) >> 3) << position);
 216:Drivers/STM32L4xx_HAL_Driver/Src/stm32l4xx_hal_gpio.c ****                 GPIOx->ASCR = temp;
 217:Drivers/STM32L4xx_HAL_Driver/Src/stm32l4xx_hal_gpio.c ****             }
 218:Drivers/STM32L4xx_HAL_Driver/Src/stm32l4xx_hal_gpio.c **** 
 219:Drivers/STM32L4xx_HAL_Driver/Src/stm32l4xx_hal_gpio.c **** #endif /* STM32L471xx || STM32L475xx || STM32L476xx || STM32L485xx || STM32L486xx */
 220:Drivers/STM32L4xx_HAL_Driver/Src/stm32l4xx_hal_gpio.c **** 
 221:Drivers/STM32L4xx_HAL_Driver/Src/stm32l4xx_hal_gpio.c ****             /* Activate the Pull-up or Pull down resistor for the current IO */
 222:Drivers/STM32L4xx_HAL_Driver/Src/stm32l4xx_hal_gpio.c ****             temp = GPIOx->PUPDR;
 109              		.loc 1 222 13 is_stmt 1 view .LVU36
 110              		.loc 1 222 18 is_stmt 0 view .LVU37
 111 002e C768     		ldr	r7, [r0, #12]
 112              	.LVL10:
 223:Drivers/STM32L4xx_HAL_Driver/Src/stm32l4xx_hal_gpio.c ****             temp &= ~(GPIO_PUPDR_PUPD0 << (position * 2u));
 113              		.loc 1 223 13 is_stmt 1 view .LVU38
 114              		.loc 1 223 53 is_stmt 0 view .LVU39
 115 0030 5E00     		lsls	r6, r3, #1
 116              		.loc 1 223 40 view .LVU40
 117 0032 0325     		movs	r5, #3
 118 0034 B540     		lsls	r5, r5, r6
 119              		.loc 1 223 21 view .LVU41
ARM GAS  C:\cygwin64\tmp\ccWIv0rg.s 			page 7


 120 0036 EC43     		mvns	r4, r5
 121              		.loc 1 223 18 view .LVU42
 122 0038 27EA0507 		bic	r7, r7, r5
 123              	.LVL11:
 224:Drivers/STM32L4xx_HAL_Driver/Src/stm32l4xx_hal_gpio.c ****             temp |= ((GPIO_Init->Pull) << (position * 2u));
 124              		.loc 1 224 13 is_stmt 1 view .LVU43
 125              		.loc 1 224 32 is_stmt 0 view .LVU44
 126 003c 8D68     		ldr	r5, [r1, #8]
 127              		.loc 1 224 40 view .LVU45
 128 003e B540     		lsls	r5, r5, r6
 129              		.loc 1 224 18 view .LVU46
 130 0040 3D43     		orrs	r5, r5, r7
 131              	.LVL12:
 225:Drivers/STM32L4xx_HAL_Driver/Src/stm32l4xx_hal_gpio.c ****             GPIOx->PUPDR = temp;
 132              		.loc 1 225 13 is_stmt 1 view .LVU47
 133              		.loc 1 225 26 is_stmt 0 view .LVU48
 134 0042 C560     		str	r5, [r0, #12]
 226:Drivers/STM32L4xx_HAL_Driver/Src/stm32l4xx_hal_gpio.c **** 
 227:Drivers/STM32L4xx_HAL_Driver/Src/stm32l4xx_hal_gpio.c ****             /* In case of Alternate function mode selection */
 228:Drivers/STM32L4xx_HAL_Driver/Src/stm32l4xx_hal_gpio.c ****             if((GPIO_Init->Mode == GPIO_MODE_AF_PP) || (GPIO_Init->Mode == GPIO_MODE_AF_OD)) {
 135              		.loc 1 228 13 is_stmt 1 view .LVU49
 136              		.loc 1 228 26 is_stmt 0 view .LVU50
 137 0044 4D68     		ldr	r5, [r1, #4]
 138              	.LVL13:
 139              		.loc 1 228 15 view .LVU51
 140 0046 022D     		cmp	r5, #2
 141 0048 01D0     		beq	.L6
 142              		.loc 1 228 53 discriminator 1 view .LVU52
 143 004a 122D     		cmp	r5, #18
 144 004c 13D1     		bne	.L7
 145              	.L6:
 229:Drivers/STM32L4xx_HAL_Driver/Src/stm32l4xx_hal_gpio.c ****                 /* Check the Alternate function parameters */
 230:Drivers/STM32L4xx_HAL_Driver/Src/stm32l4xx_hal_gpio.c ****                 assert_param(IS_GPIO_AF_INSTANCE(GPIOx));
 146              		.loc 1 230 17 is_stmt 1 view .LVU53
 231:Drivers/STM32L4xx_HAL_Driver/Src/stm32l4xx_hal_gpio.c ****                 assert_param(IS_GPIO_AF(GPIO_Init->Alternate));
 147              		.loc 1 231 17 view .LVU54
 232:Drivers/STM32L4xx_HAL_Driver/Src/stm32l4xx_hal_gpio.c **** 
 233:Drivers/STM32L4xx_HAL_Driver/Src/stm32l4xx_hal_gpio.c ****                 /* Configure Alternate function mapped with the current IO */
 234:Drivers/STM32L4xx_HAL_Driver/Src/stm32l4xx_hal_gpio.c ****                 temp = GPIOx->AFR[position >> 3u];
 148              		.loc 1 234 17 view .LVU55
 149              		.loc 1 234 44 is_stmt 0 view .LVU56
 150 004e DF08     		lsrs	r7, r3, #3
 151              		.loc 1 234 22 view .LVU57
 152 0050 0837     		adds	r7, r7, #8
 153 0052 50F827E0 		ldr	lr, [r0, r7, lsl #2]
 154              	.LVL14:
 235:Drivers/STM32L4xx_HAL_Driver/Src/stm32l4xx_hal_gpio.c ****                 temp &= ~(0xFu << ((position & 0x07u) * 4u));
 155              		.loc 1 235 17 is_stmt 1 view .LVU58
 156              		.loc 1 235 46 is_stmt 0 view .LVU59
 157 0056 03F00705 		and	r5, r3, #7
 158              		.loc 1 235 55 view .LVU60
 159 005a 4FEA850C 		lsl	ip, r5, #2
 160              		.loc 1 235 32 view .LVU61
 161 005e 0F25     		movs	r5, #15
 162 0060 05FA0CF5 		lsl	r5, r5, ip
 163              		.loc 1 235 22 view .LVU62
 164 0064 2EEA050E 		bic	lr, lr, r5
ARM GAS  C:\cygwin64\tmp\ccWIv0rg.s 			page 8


 165              	.LVL15:
 236:Drivers/STM32L4xx_HAL_Driver/Src/stm32l4xx_hal_gpio.c ****                 temp |= ((GPIO_Init->Alternate) << ((position & 0x07u) * 4u));
 166              		.loc 1 236 17 is_stmt 1 view .LVU63
 167              		.loc 1 236 36 is_stmt 0 view .LVU64
 168 0068 0D69     		ldr	r5, [r1, #16]
 169              		.loc 1 236 49 view .LVU65
 170 006a 05FA0CF5 		lsl	r5, r5, ip
 171              		.loc 1 236 22 view .LVU66
 172 006e 45EA0E05 		orr	r5, r5, lr
 173              	.LVL16:
 237:Drivers/STM32L4xx_HAL_Driver/Src/stm32l4xx_hal_gpio.c ****                 GPIOx->AFR[position >> 3u] = temp;
 174              		.loc 1 237 17 is_stmt 1 view .LVU67
 175              		.loc 1 237 44 is_stmt 0 view .LVU68
 176 0072 40F82750 		str	r5, [r0, r7, lsl #2]
 177              	.LVL17:
 178              	.L7:
 238:Drivers/STM32L4xx_HAL_Driver/Src/stm32l4xx_hal_gpio.c ****             }
 239:Drivers/STM32L4xx_HAL_Driver/Src/stm32l4xx_hal_gpio.c **** 
 240:Drivers/STM32L4xx_HAL_Driver/Src/stm32l4xx_hal_gpio.c ****             /* Configure IO Direction mode (Input, Output, Alternate or Analog) */
 241:Drivers/STM32L4xx_HAL_Driver/Src/stm32l4xx_hal_gpio.c ****             temp = GPIOx->MODER;
 179              		.loc 1 241 13 is_stmt 1 view .LVU69
 180              		.loc 1 241 18 is_stmt 0 view .LVU70
 181 0076 0568     		ldr	r5, [r0]
 182              	.LVL18:
 242:Drivers/STM32L4xx_HAL_Driver/Src/stm32l4xx_hal_gpio.c ****             temp &= ~(GPIO_MODER_MODE0 << (position * 2u));
 183              		.loc 1 242 13 is_stmt 1 view .LVU71
 184              		.loc 1 242 18 is_stmt 0 view .LVU72
 185 0078 2540     		ands	r5, r5, r4
 186              	.LVL19:
 243:Drivers/STM32L4xx_HAL_Driver/Src/stm32l4xx_hal_gpio.c ****             temp |= ((GPIO_Init->Mode & GPIO_MODE) << (position * 2u));
 187              		.loc 1 243 13 is_stmt 1 view .LVU73
 188              		.loc 1 243 32 is_stmt 0 view .LVU74
 189 007a 4C68     		ldr	r4, [r1, #4]
 190              		.loc 1 243 39 view .LVU75
 191 007c 04F00304 		and	r4, r4, #3
 192              		.loc 1 243 52 view .LVU76
 193 0080 B440     		lsls	r4, r4, r6
 194              		.loc 1 243 18 view .LVU77
 195 0082 2C43     		orrs	r4, r4, r5
 196              	.LVL20:
 244:Drivers/STM32L4xx_HAL_Driver/Src/stm32l4xx_hal_gpio.c ****             GPIOx->MODER = temp;
 197              		.loc 1 244 13 is_stmt 1 view .LVU78
 198              		.loc 1 244 26 is_stmt 0 view .LVU79
 199 0084 0460     		str	r4, [r0]
 245:Drivers/STM32L4xx_HAL_Driver/Src/stm32l4xx_hal_gpio.c **** 
 246:Drivers/STM32L4xx_HAL_Driver/Src/stm32l4xx_hal_gpio.c ****             /*--------------------- EXTI Mode Configuration ------------------------*/
 247:Drivers/STM32L4xx_HAL_Driver/Src/stm32l4xx_hal_gpio.c ****             /* Configure the External Interrupt or event for the current IO */
 248:Drivers/STM32L4xx_HAL_Driver/Src/stm32l4xx_hal_gpio.c ****             if((GPIO_Init->Mode & EXTI_MODE) == EXTI_MODE) {
 200              		.loc 1 248 13 is_stmt 1 view .LVU80
 201              		.loc 1 248 26 is_stmt 0 view .LVU81
 202 0086 4C68     		ldr	r4, [r1, #4]
 203              	.LVL21:
 204              		.loc 1 248 15 view .LVU82
 205 0088 14F0805F 		tst	r4, #268435456
 206 008c 53D0     		beq	.L3
 249:Drivers/STM32L4xx_HAL_Driver/Src/stm32l4xx_hal_gpio.c ****                 /* Enable SYSCFG Clock */
 250:Drivers/STM32L4xx_HAL_Driver/Src/stm32l4xx_hal_gpio.c ****                 __HAL_RCC_SYSCFG_CLK_ENABLE();
ARM GAS  C:\cygwin64\tmp\ccWIv0rg.s 			page 9


 207              		.loc 1 250 17 is_stmt 1 view .LVU83
 208              	.LBB2:
 209              		.loc 1 250 17 view .LVU84
 210              		.loc 1 250 17 view .LVU85
 211 008e 384C     		ldr	r4, .L20
 212 0090 256E     		ldr	r5, [r4, #96]
 213 0092 45F00105 		orr	r5, r5, #1
 214 0096 2566     		str	r5, [r4, #96]
 215              	.LVL22:
 216              		.loc 1 250 17 view .LVU86
 217 0098 246E     		ldr	r4, [r4, #96]
 218 009a 04F00104 		and	r4, r4, #1
 219 009e 0194     		str	r4, [sp, #4]
 220              		.loc 1 250 17 view .LVU87
 221 00a0 019C     		ldr	r4, [sp, #4]
 222              	.LBE2:
 223              		.loc 1 250 17 view .LVU88
 251:Drivers/STM32L4xx_HAL_Driver/Src/stm32l4xx_hal_gpio.c **** 
 252:Drivers/STM32L4xx_HAL_Driver/Src/stm32l4xx_hal_gpio.c ****                 temp = SYSCFG->EXTICR[position >> 2u];
 224              		.loc 1 252 17 view .LVU89
 225              		.loc 1 252 48 is_stmt 0 view .LVU90
 226 00a2 9D08     		lsrs	r5, r3, #2
 227              		.loc 1 252 22 view .LVU91
 228 00a4 AE1C     		adds	r6, r5, #2
 229 00a6 334C     		ldr	r4, .L20+4
 230 00a8 54F82670 		ldr	r7, [r4, r6, lsl #2]
 231              	.LVL23:
 253:Drivers/STM32L4xx_HAL_Driver/Src/stm32l4xx_hal_gpio.c ****                 temp &= ~(0x0FuL << (4u * (position & 0x03u)));
 232              		.loc 1 253 17 is_stmt 1 view .LVU92
 233              		.loc 1 253 53 is_stmt 0 view .LVU93
 234 00ac 03F00304 		and	r4, r3, #3
 235              		.loc 1 253 41 view .LVU94
 236 00b0 A600     		lsls	r6, r4, #2
 237              		.loc 1 253 34 view .LVU95
 238 00b2 0F24     		movs	r4, #15
 239 00b4 B440     		lsls	r4, r4, r6
 240              		.loc 1 253 22 view .LVU96
 241 00b6 27EA0407 		bic	r7, r7, r4
 242              	.LVL24:
 254:Drivers/STM32L4xx_HAL_Driver/Src/stm32l4xx_hal_gpio.c ****                 temp |= (GPIO_GET_INDEX(GPIOx) << (4u * (position & 0x03u)));
 243              		.loc 1 254 17 is_stmt 1 view .LVU97
 244              		.loc 1 254 26 is_stmt 0 view .LVU98
 245 00ba B0F1904F 		cmp	r0, #1207959552
 246 00be 51D0     		beq	.L14
 247              		.loc 1 254 26 discriminator 1 view .LVU99
 248 00c0 2D4C     		ldr	r4, .L20+8
 249 00c2 A042     		cmp	r0, r4
 250 00c4 50D0     		beq	.L15
 251              		.loc 1 254 26 discriminator 3 view .LVU100
 252 00c6 04F58064 		add	r4, r4, #1024
 253 00ca A042     		cmp	r0, r4
 254 00cc 48D0     		beq	.L18
 255              		.loc 1 254 26 view .LVU101
 256 00ce 0724     		movs	r4, #7
 257              	.L8:
 258              		.loc 1 254 48 discriminator 12 view .LVU102
 259 00d0 B440     		lsls	r4, r4, r6
ARM GAS  C:\cygwin64\tmp\ccWIv0rg.s 			page 10


 260              		.loc 1 254 22 discriminator 12 view .LVU103
 261 00d2 3C43     		orrs	r4, r4, r7
 262              	.LVL25:
 255:Drivers/STM32L4xx_HAL_Driver/Src/stm32l4xx_hal_gpio.c ****                 SYSCFG->EXTICR[position >> 2u] = temp;
 263              		.loc 1 255 17 is_stmt 1 discriminator 12 view .LVU104
 264              		.loc 1 255 48 is_stmt 0 discriminator 12 view .LVU105
 265 00d4 0235     		adds	r5, r5, #2
 266 00d6 274E     		ldr	r6, .L20+4
 267 00d8 46F82540 		str	r4, [r6, r5, lsl #2]
 256:Drivers/STM32L4xx_HAL_Driver/Src/stm32l4xx_hal_gpio.c **** 
 257:Drivers/STM32L4xx_HAL_Driver/Src/stm32l4xx_hal_gpio.c ****                 /* Clear EXTI line configuration */
 258:Drivers/STM32L4xx_HAL_Driver/Src/stm32l4xx_hal_gpio.c ****                 temp = EXTI->IMR1;
 268              		.loc 1 258 17 is_stmt 1 discriminator 12 view .LVU106
 269              		.loc 1 258 22 is_stmt 0 discriminator 12 view .LVU107
 270 00dc 274C     		ldr	r4, .L20+12
 271              	.LVL26:
 272              		.loc 1 258 22 discriminator 12 view .LVU108
 273 00de 2568     		ldr	r5, [r4]
 274              	.LVL27:
 259:Drivers/STM32L4xx_HAL_Driver/Src/stm32l4xx_hal_gpio.c ****                 temp &= ~(iocurrent);
 275              		.loc 1 259 17 is_stmt 1 discriminator 12 view .LVU109
 276              		.loc 1 259 25 is_stmt 0 discriminator 12 view .LVU110
 277 00e0 D443     		mvns	r4, r2
 278              		.loc 1 259 22 discriminator 12 view .LVU111
 279 00e2 25EA0206 		bic	r6, r5, r2
 280              	.LVL28:
 260:Drivers/STM32L4xx_HAL_Driver/Src/stm32l4xx_hal_gpio.c ****                 if((GPIO_Init->Mode & GPIO_MODE_IT) == GPIO_MODE_IT) {
 281              		.loc 1 260 17 is_stmt 1 discriminator 12 view .LVU112
 282              		.loc 1 260 30 is_stmt 0 discriminator 12 view .LVU113
 283 00e6 4F68     		ldr	r7, [r1, #4]
 284              		.loc 1 260 19 discriminator 12 view .LVU114
 285 00e8 17F4803F 		tst	r7, #65536
 286 00ec 01D0     		beq	.L9
 261:Drivers/STM32L4xx_HAL_Driver/Src/stm32l4xx_hal_gpio.c ****                     temp |= iocurrent;
 287              		.loc 1 261 21 is_stmt 1 view .LVU115
 288              		.loc 1 261 26 is_stmt 0 view .LVU116
 289 00ee 42EA0506 		orr	r6, r2, r5
 290              	.LVL29:
 291              	.L9:
 262:Drivers/STM32L4xx_HAL_Driver/Src/stm32l4xx_hal_gpio.c ****                 }
 263:Drivers/STM32L4xx_HAL_Driver/Src/stm32l4xx_hal_gpio.c ****                 EXTI->IMR1 = temp;
 292              		.loc 1 263 17 is_stmt 1 view .LVU117
 293              		.loc 1 263 28 is_stmt 0 view .LVU118
 294 00f2 224D     		ldr	r5, .L20+12
 295 00f4 2E60     		str	r6, [r5]
 264:Drivers/STM32L4xx_HAL_Driver/Src/stm32l4xx_hal_gpio.c **** 
 265:Drivers/STM32L4xx_HAL_Driver/Src/stm32l4xx_hal_gpio.c ****                 temp = EXTI->EMR1;
 296              		.loc 1 265 17 is_stmt 1 view .LVU119
 297              		.loc 1 265 22 is_stmt 0 view .LVU120
 298 00f6 6D68     		ldr	r5, [r5, #4]
 299              	.LVL30:
 266:Drivers/STM32L4xx_HAL_Driver/Src/stm32l4xx_hal_gpio.c ****                 temp &= ~(iocurrent);
 300              		.loc 1 266 17 is_stmt 1 view .LVU121
 301              		.loc 1 266 22 is_stmt 0 view .LVU122
 302 00f8 04EA0506 		and	r6, r4, r5
 303              	.LVL31:
 267:Drivers/STM32L4xx_HAL_Driver/Src/stm32l4xx_hal_gpio.c ****                 if((GPIO_Init->Mode & GPIO_MODE_EVT) == GPIO_MODE_EVT) {
ARM GAS  C:\cygwin64\tmp\ccWIv0rg.s 			page 11


 304              		.loc 1 267 17 is_stmt 1 view .LVU123
 305              		.loc 1 267 30 is_stmt 0 view .LVU124
 306 00fc 4F68     		ldr	r7, [r1, #4]
 307              		.loc 1 267 19 view .LVU125
 308 00fe 17F4003F 		tst	r7, #131072
 309 0102 01D0     		beq	.L10
 268:Drivers/STM32L4xx_HAL_Driver/Src/stm32l4xx_hal_gpio.c ****                     temp |= iocurrent;
 310              		.loc 1 268 21 is_stmt 1 view .LVU126
 311              		.loc 1 268 26 is_stmt 0 view .LVU127
 312 0104 42EA0506 		orr	r6, r2, r5
 313              	.LVL32:
 314              	.L10:
 269:Drivers/STM32L4xx_HAL_Driver/Src/stm32l4xx_hal_gpio.c ****                 }
 270:Drivers/STM32L4xx_HAL_Driver/Src/stm32l4xx_hal_gpio.c ****                 EXTI->EMR1 = temp;
 315              		.loc 1 270 17 is_stmt 1 view .LVU128
 316              		.loc 1 270 28 is_stmt 0 view .LVU129
 317 0108 1C4D     		ldr	r5, .L20+12
 318 010a 6E60     		str	r6, [r5, #4]
 271:Drivers/STM32L4xx_HAL_Driver/Src/stm32l4xx_hal_gpio.c **** 
 272:Drivers/STM32L4xx_HAL_Driver/Src/stm32l4xx_hal_gpio.c ****                 /* Clear Rising Falling edge configuration */
 273:Drivers/STM32L4xx_HAL_Driver/Src/stm32l4xx_hal_gpio.c ****                 temp = EXTI->RTSR1;
 319              		.loc 1 273 17 is_stmt 1 view .LVU130
 320              		.loc 1 273 22 is_stmt 0 view .LVU131
 321 010c AD68     		ldr	r5, [r5, #8]
 322              	.LVL33:
 274:Drivers/STM32L4xx_HAL_Driver/Src/stm32l4xx_hal_gpio.c ****                 temp &= ~(iocurrent);
 323              		.loc 1 274 17 is_stmt 1 view .LVU132
 324              		.loc 1 274 22 is_stmt 0 view .LVU133
 325 010e 04EA0506 		and	r6, r4, r5
 326              	.LVL34:
 275:Drivers/STM32L4xx_HAL_Driver/Src/stm32l4xx_hal_gpio.c ****                 if((GPIO_Init->Mode & RISING_EDGE) == RISING_EDGE) {
 327              		.loc 1 275 17 is_stmt 1 view .LVU134
 328              		.loc 1 275 30 is_stmt 0 view .LVU135
 329 0112 4F68     		ldr	r7, [r1, #4]
 330              		.loc 1 275 19 view .LVU136
 331 0114 17F4801F 		tst	r7, #1048576
 332 0118 01D0     		beq	.L11
 276:Drivers/STM32L4xx_HAL_Driver/Src/stm32l4xx_hal_gpio.c ****                     temp |= iocurrent;
 333              		.loc 1 276 21 is_stmt 1 view .LVU137
 334              		.loc 1 276 26 is_stmt 0 view .LVU138
 335 011a 42EA0506 		orr	r6, r2, r5
 336              	.LVL35:
 337              	.L11:
 277:Drivers/STM32L4xx_HAL_Driver/Src/stm32l4xx_hal_gpio.c ****                 }
 278:Drivers/STM32L4xx_HAL_Driver/Src/stm32l4xx_hal_gpio.c ****                 EXTI->RTSR1 = temp;
 338              		.loc 1 278 17 is_stmt 1 view .LVU139
 339              		.loc 1 278 29 is_stmt 0 view .LVU140
 340 011e 174D     		ldr	r5, .L20+12
 341 0120 AE60     		str	r6, [r5, #8]
 279:Drivers/STM32L4xx_HAL_Driver/Src/stm32l4xx_hal_gpio.c **** 
 280:Drivers/STM32L4xx_HAL_Driver/Src/stm32l4xx_hal_gpio.c ****                 temp = EXTI->FTSR1;
 342              		.loc 1 280 17 is_stmt 1 view .LVU141
 343              		.loc 1 280 22 is_stmt 0 view .LVU142
 344 0122 ED68     		ldr	r5, [r5, #12]
 345              	.LVL36:
 281:Drivers/STM32L4xx_HAL_Driver/Src/stm32l4xx_hal_gpio.c ****                 temp &= ~(iocurrent);
 346              		.loc 1 281 17 is_stmt 1 view .LVU143
ARM GAS  C:\cygwin64\tmp\ccWIv0rg.s 			page 12


 347              		.loc 1 281 22 is_stmt 0 view .LVU144
 348 0124 2C40     		ands	r4, r4, r5
 349              	.LVL37:
 282:Drivers/STM32L4xx_HAL_Driver/Src/stm32l4xx_hal_gpio.c ****                 if((GPIO_Init->Mode & FALLING_EDGE) == FALLING_EDGE) {
 350              		.loc 1 282 17 is_stmt 1 view .LVU145
 351              		.loc 1 282 30 is_stmt 0 view .LVU146
 352 0126 4E68     		ldr	r6, [r1, #4]
 353              		.loc 1 282 19 view .LVU147
 354 0128 16F4001F 		tst	r6, #2097152
 355 012c 01D0     		beq	.L12
 283:Drivers/STM32L4xx_HAL_Driver/Src/stm32l4xx_hal_gpio.c ****                     temp |= iocurrent;
 356              		.loc 1 283 21 is_stmt 1 view .LVU148
 357              		.loc 1 283 26 is_stmt 0 view .LVU149
 358 012e 42EA0504 		orr	r4, r2, r5
 359              	.LVL38:
 360              	.L12:
 284:Drivers/STM32L4xx_HAL_Driver/Src/stm32l4xx_hal_gpio.c ****                 }
 285:Drivers/STM32L4xx_HAL_Driver/Src/stm32l4xx_hal_gpio.c ****                 EXTI->FTSR1 = temp;
 361              		.loc 1 285 17 is_stmt 1 view .LVU150
 362              		.loc 1 285 29 is_stmt 0 view .LVU151
 363 0132 124A     		ldr	r2, .L20+12
 364              	.LVL39:
 365              		.loc 1 285 29 view .LVU152
 366 0134 D460     		str	r4, [r2, #12]
 367              	.LVL40:
 368              	.L3:
 286:Drivers/STM32L4xx_HAL_Driver/Src/stm32l4xx_hal_gpio.c ****             }
 287:Drivers/STM32L4xx_HAL_Driver/Src/stm32l4xx_hal_gpio.c ****         }
 288:Drivers/STM32L4xx_HAL_Driver/Src/stm32l4xx_hal_gpio.c **** 
 289:Drivers/STM32L4xx_HAL_Driver/Src/stm32l4xx_hal_gpio.c ****         position++;
 369              		.loc 1 289 9 is_stmt 1 view .LVU153
 370              		.loc 1 289 17 is_stmt 0 view .LVU154
 371 0136 0133     		adds	r3, r3, #1
 372              	.LVL41:
 373              	.L2:
 184:Drivers/STM32L4xx_HAL_Driver/Src/stm32l4xx_hal_gpio.c ****         /* Get current io position */
 374              		.loc 1 184 11 is_stmt 1 view .LVU155
 184:Drivers/STM32L4xx_HAL_Driver/Src/stm32l4xx_hal_gpio.c ****         /* Get current io position */
 375              		.loc 1 184 23 is_stmt 0 view .LVU156
 376 0138 0A68     		ldr	r2, [r1]
 184:Drivers/STM32L4xx_HAL_Driver/Src/stm32l4xx_hal_gpio.c ****         /* Get current io position */
 377              		.loc 1 184 11 view .LVU157
 378 013a 32FA03F4 		lsrs	r4, r2, r3
 379 013e 15D0     		beq	.L19
 186:Drivers/STM32L4xx_HAL_Driver/Src/stm32l4xx_hal_gpio.c **** 
 380              		.loc 1 186 9 is_stmt 1 view .LVU158
 186:Drivers/STM32L4xx_HAL_Driver/Src/stm32l4xx_hal_gpio.c **** 
 381              		.loc 1 186 45 is_stmt 0 view .LVU159
 382 0140 0124     		movs	r4, #1
 383 0142 9C40     		lsls	r4, r4, r3
 384              	.LVL42:
 188:Drivers/STM32L4xx_HAL_Driver/Src/stm32l4xx_hal_gpio.c ****             /*--------------------- GPIO Mode Configuration ------------------------*/
 385              		.loc 1 188 9 is_stmt 1 view .LVU160
 188:Drivers/STM32L4xx_HAL_Driver/Src/stm32l4xx_hal_gpio.c ****             /*--------------------- GPIO Mode Configuration ------------------------*/
 386              		.loc 1 188 12 is_stmt 0 view .LVU161
 387 0144 2240     		ands	r2, r4, r2
 388              	.LVL43:
ARM GAS  C:\cygwin64\tmp\ccWIv0rg.s 			page 13


 188:Drivers/STM32L4xx_HAL_Driver/Src/stm32l4xx_hal_gpio.c ****             /*--------------------- GPIO Mode Configuration ------------------------*/
 389              		.loc 1 188 12 view .LVU162
 390 0146 F6D0     		beq	.L3
 191:Drivers/STM32L4xx_HAL_Driver/Src/stm32l4xx_hal_gpio.c ****                     (GPIO_Init->Mode == GPIO_MODE_OUTPUT_OD) || (GPIO_Init->Mode == GPIO_MODE_AF_OD
 391              		.loc 1 191 13 is_stmt 1 view .LVU163
 191:Drivers/STM32L4xx_HAL_Driver/Src/stm32l4xx_hal_gpio.c ****                     (GPIO_Init->Mode == GPIO_MODE_OUTPUT_OD) || (GPIO_Init->Mode == GPIO_MODE_AF_OD
 392              		.loc 1 191 26 is_stmt 0 view .LVU164
 393 0148 4D68     		ldr	r5, [r1, #4]
 191:Drivers/STM32L4xx_HAL_Driver/Src/stm32l4xx_hal_gpio.c ****                     (GPIO_Init->Mode == GPIO_MODE_OUTPUT_OD) || (GPIO_Init->Mode == GPIO_MODE_AF_OD
 394              		.loc 1 191 57 view .LVU165
 395 014a 6E1E     		subs	r6, r5, #1
 191:Drivers/STM32L4xx_HAL_Driver/Src/stm32l4xx_hal_gpio.c ****                     (GPIO_Init->Mode == GPIO_MODE_OUTPUT_OD) || (GPIO_Init->Mode == GPIO_MODE_AF_OD
 396              		.loc 1 191 15 view .LVU166
 397 014c 012E     		cmp	r6, #1
 398 014e 7FF65BAF 		bls	.L4
 191:Drivers/STM32L4xx_HAL_Driver/Src/stm32l4xx_hal_gpio.c ****                     (GPIO_Init->Mode == GPIO_MODE_OUTPUT_OD) || (GPIO_Init->Mode == GPIO_MODE_AF_OD
 399              		.loc 1 191 97 discriminator 1 view .LVU167
 400 0152 112D     		cmp	r5, #17
 401 0154 3FF458AF 		beq	.L4
 192:Drivers/STM32L4xx_HAL_Driver/Src/stm32l4xx_hal_gpio.c ****                 /* Check the Speed parameter */
 402              		.loc 1 192 62 view .LVU168
 403 0158 122D     		cmp	r5, #18
 404 015a 7FF468AF 		bne	.L5
 405 015e 53E7     		b	.L4
 406              	.LVL44:
 407              	.L18:
 254:Drivers/STM32L4xx_HAL_Driver/Src/stm32l4xx_hal_gpio.c ****                 SYSCFG->EXTICR[position >> 2u] = temp;
 408              		.loc 1 254 26 view .LVU169
 409 0160 0224     		movs	r4, #2
 410 0162 B5E7     		b	.L8
 411              	.L14:
 412 0164 0024     		movs	r4, #0
 413 0166 B3E7     		b	.L8
 414              	.L15:
 415 0168 0124     		movs	r4, #1
 416 016a B1E7     		b	.L8
 417              	.LVL45:
 418              	.L19:
 290:Drivers/STM32L4xx_HAL_Driver/Src/stm32l4xx_hal_gpio.c ****     }
 291:Drivers/STM32L4xx_HAL_Driver/Src/stm32l4xx_hal_gpio.c **** }
 419              		.loc 1 291 1 view .LVU170
 420 016c 03B0     		add	sp, sp, #12
 421              	.LCFI2:
 422              		.cfi_def_cfa_offset 20
 423              		@ sp needed
 424 016e F0BD     		pop	{r4, r5, r6, r7, pc}
 425              	.L21:
 426              		.align	2
 427              	.L20:
 428 0170 00100240 		.word	1073876992
 429 0174 00000140 		.word	1073807360
 430 0178 00040048 		.word	1207960576
 431 017c 00040140 		.word	1073808384
 432              		.cfi_endproc
 433              	.LFE132:
 435              		.section	.text.HAL_GPIO_DeInit,"ax",%progbits
 436              		.align	1
ARM GAS  C:\cygwin64\tmp\ccWIv0rg.s 			page 14


 437              		.global	HAL_GPIO_DeInit
 438              		.syntax unified
 439              		.thumb
 440              		.thumb_func
 441              		.fpu fpv4-sp-d16
 443              	HAL_GPIO_DeInit:
 444              	.LVL46:
 445              	.LFB133:
 292:Drivers/STM32L4xx_HAL_Driver/Src/stm32l4xx_hal_gpio.c **** 
 293:Drivers/STM32L4xx_HAL_Driver/Src/stm32l4xx_hal_gpio.c **** /**
 294:Drivers/STM32L4xx_HAL_Driver/Src/stm32l4xx_hal_gpio.c ****   * @brief  De-initialize the GPIOx peripheral registers to their default reset values.
 295:Drivers/STM32L4xx_HAL_Driver/Src/stm32l4xx_hal_gpio.c ****   * @param  GPIOx where x can be (A..H) to select the GPIO peripheral for STM32L4 family
 296:Drivers/STM32L4xx_HAL_Driver/Src/stm32l4xx_hal_gpio.c ****   * @param  GPIO_Pin specifies the port bit to be written.
 297:Drivers/STM32L4xx_HAL_Driver/Src/stm32l4xx_hal_gpio.c ****   *         This parameter can be any combination of GPIO_Pin_x where x can be (0..15).
 298:Drivers/STM32L4xx_HAL_Driver/Src/stm32l4xx_hal_gpio.c ****   * @retval None
 299:Drivers/STM32L4xx_HAL_Driver/Src/stm32l4xx_hal_gpio.c ****   */
 300:Drivers/STM32L4xx_HAL_Driver/Src/stm32l4xx_hal_gpio.c **** void HAL_GPIO_DeInit(GPIO_TypeDef  *GPIOx, uint32_t GPIO_Pin) {
 446              		.loc 1 300 63 is_stmt 1 view -0
 447              		.cfi_startproc
 448              		@ args = 0, pretend = 0, frame = 0
 449              		@ frame_needed = 0, uses_anonymous_args = 0
 301:Drivers/STM32L4xx_HAL_Driver/Src/stm32l4xx_hal_gpio.c ****     uint32_t position = 0x00u;
 450              		.loc 1 301 5 view .LVU172
 302:Drivers/STM32L4xx_HAL_Driver/Src/stm32l4xx_hal_gpio.c ****     uint32_t iocurrent;
 451              		.loc 1 302 5 view .LVU173
 303:Drivers/STM32L4xx_HAL_Driver/Src/stm32l4xx_hal_gpio.c ****     uint32_t tmp;
 452              		.loc 1 303 5 view .LVU174
 304:Drivers/STM32L4xx_HAL_Driver/Src/stm32l4xx_hal_gpio.c **** 
 305:Drivers/STM32L4xx_HAL_Driver/Src/stm32l4xx_hal_gpio.c ****     /* Check the parameters */
 306:Drivers/STM32L4xx_HAL_Driver/Src/stm32l4xx_hal_gpio.c ****     assert_param(IS_GPIO_ALL_INSTANCE(GPIOx));
 453              		.loc 1 306 5 view .LVU175
 307:Drivers/STM32L4xx_HAL_Driver/Src/stm32l4xx_hal_gpio.c ****     assert_param(IS_GPIO_PIN(GPIO_Pin));
 454              		.loc 1 307 5 view .LVU176
 308:Drivers/STM32L4xx_HAL_Driver/Src/stm32l4xx_hal_gpio.c **** 
 309:Drivers/STM32L4xx_HAL_Driver/Src/stm32l4xx_hal_gpio.c ****     /* Configure the port pins */
 310:Drivers/STM32L4xx_HAL_Driver/Src/stm32l4xx_hal_gpio.c ****     while ((GPIO_Pin >> position) != 0x00u) {
 455              		.loc 1 310 5 view .LVU177
 301:Drivers/STM32L4xx_HAL_Driver/Src/stm32l4xx_hal_gpio.c ****     uint32_t iocurrent;
 456              		.loc 1 301 14 is_stmt 0 view .LVU178
 457 0000 0023     		movs	r3, #0
 458              	.LVL47:
 459              		.loc 1 310 11 is_stmt 1 view .LVU179
 460 0002 31FA03F2 		lsrs	r2, r1, r3
 461 0006 6BD0     		beq	.L34
 300:Drivers/STM32L4xx_HAL_Driver/Src/stm32l4xx_hal_gpio.c ****     uint32_t position = 0x00u;
 462              		.loc 1 300 63 is_stmt 0 view .LVU180
 463 0008 F0B5     		push	{r4, r5, r6, r7, lr}
 464              	.LCFI3:
 465              		.cfi_def_cfa_offset 20
 466              		.cfi_offset 4, -20
 467              		.cfi_offset 5, -16
 468              		.cfi_offset 6, -12
 469              		.cfi_offset 7, -8
 470              		.cfi_offset 14, -4
 471 000a 2DE0     		b	.L27
 472              	.LVL48:
 473              	.L37:
ARM GAS  C:\cygwin64\tmp\ccWIv0rg.s 			page 15


 311:Drivers/STM32L4xx_HAL_Driver/Src/stm32l4xx_hal_gpio.c ****         /* Get current io position */
 312:Drivers/STM32L4xx_HAL_Driver/Src/stm32l4xx_hal_gpio.c ****         iocurrent = (GPIO_Pin) & (1uL << position);
 313:Drivers/STM32L4xx_HAL_Driver/Src/stm32l4xx_hal_gpio.c **** 
 314:Drivers/STM32L4xx_HAL_Driver/Src/stm32l4xx_hal_gpio.c ****         if (iocurrent != 0x00u) {
 315:Drivers/STM32L4xx_HAL_Driver/Src/stm32l4xx_hal_gpio.c ****             /*------------------------- EXTI Mode Configuration --------------------*/
 316:Drivers/STM32L4xx_HAL_Driver/Src/stm32l4xx_hal_gpio.c ****             /* Clear the External Interrupt or Event for the current IO */
 317:Drivers/STM32L4xx_HAL_Driver/Src/stm32l4xx_hal_gpio.c **** 
 318:Drivers/STM32L4xx_HAL_Driver/Src/stm32l4xx_hal_gpio.c ****             tmp = SYSCFG->EXTICR[position >> 2u];
 319:Drivers/STM32L4xx_HAL_Driver/Src/stm32l4xx_hal_gpio.c ****             tmp &= (0x0FuL << (4u * (position & 0x03u)));
 320:Drivers/STM32L4xx_HAL_Driver/Src/stm32l4xx_hal_gpio.c ****             if (tmp == (GPIO_GET_INDEX(GPIOx) << (4u * (position & 0x03u)))) {
 474              		.loc 1 320 25 view .LVU181
 475 000c 0227     		movs	r7, #2
 476 000e 00E0     		b	.L25
 477              	.L28:
 478 0010 0027     		movs	r7, #0
 479              	.L25:
 480              		.loc 1 320 47 discriminator 12 view .LVU182
 481 0012 07FA04F4 		lsl	r4, r7, r4
 482              		.loc 1 320 16 discriminator 12 view .LVU183
 483 0016 B442     		cmp	r4, r6
 484 0018 46D0     		beq	.L35
 485              	.LVL49:
 486              	.L26:
 321:Drivers/STM32L4xx_HAL_Driver/Src/stm32l4xx_hal_gpio.c ****                 /* Clear EXTI line configuration */
 322:Drivers/STM32L4xx_HAL_Driver/Src/stm32l4xx_hal_gpio.c ****                 EXTI->IMR1 &= ~(iocurrent);
 323:Drivers/STM32L4xx_HAL_Driver/Src/stm32l4xx_hal_gpio.c ****                 EXTI->EMR1 &= ~(iocurrent);
 324:Drivers/STM32L4xx_HAL_Driver/Src/stm32l4xx_hal_gpio.c **** 
 325:Drivers/STM32L4xx_HAL_Driver/Src/stm32l4xx_hal_gpio.c ****                 /* Clear Rising Falling edge configuration */
 326:Drivers/STM32L4xx_HAL_Driver/Src/stm32l4xx_hal_gpio.c ****                 EXTI->RTSR1 &= ~(iocurrent);
 327:Drivers/STM32L4xx_HAL_Driver/Src/stm32l4xx_hal_gpio.c ****                 EXTI->FTSR1 &= ~(iocurrent);
 328:Drivers/STM32L4xx_HAL_Driver/Src/stm32l4xx_hal_gpio.c **** 
 329:Drivers/STM32L4xx_HAL_Driver/Src/stm32l4xx_hal_gpio.c ****                 tmp = 0x0FuL << (4u * (position & 0x03u));
 330:Drivers/STM32L4xx_HAL_Driver/Src/stm32l4xx_hal_gpio.c ****                 SYSCFG->EXTICR[position >> 2u] &= ~tmp;
 331:Drivers/STM32L4xx_HAL_Driver/Src/stm32l4xx_hal_gpio.c ****             }
 332:Drivers/STM32L4xx_HAL_Driver/Src/stm32l4xx_hal_gpio.c **** 
 333:Drivers/STM32L4xx_HAL_Driver/Src/stm32l4xx_hal_gpio.c ****             /*------------------------- GPIO Mode Configuration --------------------*/
 334:Drivers/STM32L4xx_HAL_Driver/Src/stm32l4xx_hal_gpio.c ****             /* Configure IO in Analog Mode */
 335:Drivers/STM32L4xx_HAL_Driver/Src/stm32l4xx_hal_gpio.c ****             GPIOx->MODER |= (GPIO_MODER_MODE0 << (position * 2u));
 487              		.loc 1 335 13 is_stmt 1 view .LVU184
 488              		.loc 1 335 26 is_stmt 0 view .LVU185
 489 001a 0568     		ldr	r5, [r0]
 490              		.loc 1 335 60 view .LVU186
 491 001c 5C00     		lsls	r4, r3, #1
 492              		.loc 1 335 47 view .LVU187
 493 001e 0326     		movs	r6, #3
 494 0020 06FA04F4 		lsl	r4, r6, r4
 495              		.loc 1 335 26 view .LVU188
 496 0024 2543     		orrs	r5, r5, r4
 497 0026 0560     		str	r5, [r0]
 336:Drivers/STM32L4xx_HAL_Driver/Src/stm32l4xx_hal_gpio.c **** 
 337:Drivers/STM32L4xx_HAL_Driver/Src/stm32l4xx_hal_gpio.c ****             /* Configure the default Alternate Function in current IO */
 338:Drivers/STM32L4xx_HAL_Driver/Src/stm32l4xx_hal_gpio.c ****             GPIOx->AFR[position >> 3u] &= ~(0xFu << ((position & 0x07u) * 4u)) ;
 498              		.loc 1 338 13 is_stmt 1 view .LVU189
 499              		.loc 1 338 40 is_stmt 0 view .LVU190
 500 0028 23FA06F5 		lsr	r5, r3, r6
 501 002c 0835     		adds	r5, r5, #8
 502 002e 50F82560 		ldr	r6, [r0, r5, lsl #2]
ARM GAS  C:\cygwin64\tmp\ccWIv0rg.s 			page 16


 503              		.loc 1 338 64 view .LVU191
 504 0032 03F00707 		and	r7, r3, #7
 505              		.loc 1 338 73 view .LVU192
 506 0036 4FEA870C 		lsl	ip, r7, #2
 507              		.loc 1 338 50 view .LVU193
 508 003a 0F27     		movs	r7, #15
 509 003c 07FA0CF7 		lsl	r7, r7, ip
 510              		.loc 1 338 40 view .LVU194
 511 0040 26EA0706 		bic	r6, r6, r7
 512 0044 40F82560 		str	r6, [r0, r5, lsl #2]
 339:Drivers/STM32L4xx_HAL_Driver/Src/stm32l4xx_hal_gpio.c **** 
 340:Drivers/STM32L4xx_HAL_Driver/Src/stm32l4xx_hal_gpio.c ****             /* Configure the default value for IO Speed */
 341:Drivers/STM32L4xx_HAL_Driver/Src/stm32l4xx_hal_gpio.c ****             GPIOx->OSPEEDR &= ~(GPIO_OSPEEDR_OSPEED0 << (position * 2u));
 513              		.loc 1 341 13 is_stmt 1 view .LVU195
 514              		.loc 1 341 28 is_stmt 0 view .LVU196
 515 0048 8568     		ldr	r5, [r0, #8]
 516 004a 25EA0405 		bic	r5, r5, r4
 517 004e 8560     		str	r5, [r0, #8]
 342:Drivers/STM32L4xx_HAL_Driver/Src/stm32l4xx_hal_gpio.c **** 
 343:Drivers/STM32L4xx_HAL_Driver/Src/stm32l4xx_hal_gpio.c ****             /* Configure the default value IO Output Type */
 344:Drivers/STM32L4xx_HAL_Driver/Src/stm32l4xx_hal_gpio.c ****             GPIOx->OTYPER  &= ~(GPIO_OTYPER_OT0 << position) ;
 518              		.loc 1 344 13 is_stmt 1 view .LVU197
 519              		.loc 1 344 28 is_stmt 0 view .LVU198
 520 0050 4568     		ldr	r5, [r0, #4]
 521 0052 25EA0202 		bic	r2, r5, r2
 522 0056 4260     		str	r2, [r0, #4]
 345:Drivers/STM32L4xx_HAL_Driver/Src/stm32l4xx_hal_gpio.c **** 
 346:Drivers/STM32L4xx_HAL_Driver/Src/stm32l4xx_hal_gpio.c ****             /* Deactivate the Pull-up and Pull-down resistor for the current IO */
 347:Drivers/STM32L4xx_HAL_Driver/Src/stm32l4xx_hal_gpio.c ****             GPIOx->PUPDR &= ~(GPIO_PUPDR_PUPD0 << (position * 2u));
 523              		.loc 1 347 13 is_stmt 1 view .LVU199
 524              		.loc 1 347 26 is_stmt 0 view .LVU200
 525 0058 C268     		ldr	r2, [r0, #12]
 526 005a 22EA0404 		bic	r4, r2, r4
 527 005e C460     		str	r4, [r0, #12]
 528              	.L24:
 348:Drivers/STM32L4xx_HAL_Driver/Src/stm32l4xx_hal_gpio.c **** 
 349:Drivers/STM32L4xx_HAL_Driver/Src/stm32l4xx_hal_gpio.c **** #if defined(STM32L471xx) || defined(STM32L475xx) || defined(STM32L476xx) || defined(STM32L485xx) ||
 350:Drivers/STM32L4xx_HAL_Driver/Src/stm32l4xx_hal_gpio.c ****             /* Deactivate the Control bit of Analog mode for the current IO */
 351:Drivers/STM32L4xx_HAL_Driver/Src/stm32l4xx_hal_gpio.c ****             GPIOx->ASCR &= ~(GPIO_ASCR_ASC0 << position);
 352:Drivers/STM32L4xx_HAL_Driver/Src/stm32l4xx_hal_gpio.c **** #endif /* STM32L471xx || STM32L475xx || STM32L476xx || STM32L485xx || STM32L486xx */
 353:Drivers/STM32L4xx_HAL_Driver/Src/stm32l4xx_hal_gpio.c ****         }
 354:Drivers/STM32L4xx_HAL_Driver/Src/stm32l4xx_hal_gpio.c **** 
 355:Drivers/STM32L4xx_HAL_Driver/Src/stm32l4xx_hal_gpio.c ****         position++;
 529              		.loc 1 355 9 is_stmt 1 view .LVU201
 530              		.loc 1 355 17 is_stmt 0 view .LVU202
 531 0060 0133     		adds	r3, r3, #1
 532              	.LVL50:
 310:Drivers/STM32L4xx_HAL_Driver/Src/stm32l4xx_hal_gpio.c ****         /* Get current io position */
 533              		.loc 1 310 11 is_stmt 1 view .LVU203
 534 0062 31FA03F2 		lsrs	r2, r1, r3
 535 0066 3AD0     		beq	.L36
 536              	.LVL51:
 537              	.L27:
 312:Drivers/STM32L4xx_HAL_Driver/Src/stm32l4xx_hal_gpio.c **** 
 538              		.loc 1 312 9 view .LVU204
 312:Drivers/STM32L4xx_HAL_Driver/Src/stm32l4xx_hal_gpio.c **** 
 539              		.loc 1 312 39 is_stmt 0 view .LVU205
ARM GAS  C:\cygwin64\tmp\ccWIv0rg.s 			page 17


 540 0068 0122     		movs	r2, #1
 541 006a 9A40     		lsls	r2, r2, r3
 542              	.LVL52:
 314:Drivers/STM32L4xx_HAL_Driver/Src/stm32l4xx_hal_gpio.c ****             /*------------------------- EXTI Mode Configuration --------------------*/
 543              		.loc 1 314 9 is_stmt 1 view .LVU206
 314:Drivers/STM32L4xx_HAL_Driver/Src/stm32l4xx_hal_gpio.c ****             /*------------------------- EXTI Mode Configuration --------------------*/
 544              		.loc 1 314 12 is_stmt 0 view .LVU207
 545 006c 12EA010E 		ands	lr, r2, r1
 546              	.LVL53:
 314:Drivers/STM32L4xx_HAL_Driver/Src/stm32l4xx_hal_gpio.c ****             /*------------------------- EXTI Mode Configuration --------------------*/
 547              		.loc 1 314 12 view .LVU208
 548 0070 F6D0     		beq	.L24
 318:Drivers/STM32L4xx_HAL_Driver/Src/stm32l4xx_hal_gpio.c ****             tmp &= (0x0FuL << (4u * (position & 0x03u)));
 549              		.loc 1 318 13 is_stmt 1 view .LVU209
 318:Drivers/STM32L4xx_HAL_Driver/Src/stm32l4xx_hal_gpio.c ****             tmp &= (0x0FuL << (4u * (position & 0x03u)));
 550              		.loc 1 318 43 is_stmt 0 view .LVU210
 551 0072 4FEA930C 		lsr	ip, r3, #2
 318:Drivers/STM32L4xx_HAL_Driver/Src/stm32l4xx_hal_gpio.c ****             tmp &= (0x0FuL << (4u * (position & 0x03u)));
 552              		.loc 1 318 17 view .LVU211
 553 0076 0CF10205 		add	r5, ip, #2
 554 007a 1A4C     		ldr	r4, .L38
 555 007c 54F82560 		ldr	r6, [r4, r5, lsl #2]
 556              	.LVL54:
 319:Drivers/STM32L4xx_HAL_Driver/Src/stm32l4xx_hal_gpio.c ****             if (tmp == (GPIO_GET_INDEX(GPIOx) << (4u * (position & 0x03u)))) {
 557              		.loc 1 319 13 is_stmt 1 view .LVU212
 319:Drivers/STM32L4xx_HAL_Driver/Src/stm32l4xx_hal_gpio.c ****             if (tmp == (GPIO_GET_INDEX(GPIOx) << (4u * (position & 0x03u)))) {
 558              		.loc 1 319 47 is_stmt 0 view .LVU213
 559 0080 03F00304 		and	r4, r3, #3
 319:Drivers/STM32L4xx_HAL_Driver/Src/stm32l4xx_hal_gpio.c ****             if (tmp == (GPIO_GET_INDEX(GPIOx) << (4u * (position & 0x03u)))) {
 560              		.loc 1 319 35 view .LVU214
 561 0084 A400     		lsls	r4, r4, #2
 319:Drivers/STM32L4xx_HAL_Driver/Src/stm32l4xx_hal_gpio.c ****             if (tmp == (GPIO_GET_INDEX(GPIOx) << (4u * (position & 0x03u)))) {
 562              		.loc 1 319 28 view .LVU215
 563 0086 0F25     		movs	r5, #15
 564 0088 A540     		lsls	r5, r5, r4
 319:Drivers/STM32L4xx_HAL_Driver/Src/stm32l4xx_hal_gpio.c ****             if (tmp == (GPIO_GET_INDEX(GPIOx) << (4u * (position & 0x03u)))) {
 565              		.loc 1 319 17 view .LVU216
 566 008a 2E40     		ands	r6, r6, r5
 567              	.LVL55:
 320:Drivers/STM32L4xx_HAL_Driver/Src/stm32l4xx_hal_gpio.c ****                 /* Clear EXTI line configuration */
 568              		.loc 1 320 13 is_stmt 1 view .LVU217
 320:Drivers/STM32L4xx_HAL_Driver/Src/stm32l4xx_hal_gpio.c ****                 /* Clear EXTI line configuration */
 569              		.loc 1 320 25 is_stmt 0 view .LVU218
 570 008c B0F1904F 		cmp	r0, #1207959552
 571 0090 BED0     		beq	.L28
 320:Drivers/STM32L4xx_HAL_Driver/Src/stm32l4xx_hal_gpio.c ****                 /* Clear EXTI line configuration */
 572              		.loc 1 320 25 discriminator 1 view .LVU219
 573 0092 154F     		ldr	r7, .L38+4
 574 0094 B842     		cmp	r0, r7
 575 0096 05D0     		beq	.L29
 320:Drivers/STM32L4xx_HAL_Driver/Src/stm32l4xx_hal_gpio.c ****                 /* Clear EXTI line configuration */
 576              		.loc 1 320 25 discriminator 3 view .LVU220
 577 0098 07F58067 		add	r7, r7, #1024
 578 009c B842     		cmp	r0, r7
 579 009e B5D0     		beq	.L37
 320:Drivers/STM32L4xx_HAL_Driver/Src/stm32l4xx_hal_gpio.c ****                 /* Clear EXTI line configuration */
 580              		.loc 1 320 25 view .LVU221
ARM GAS  C:\cygwin64\tmp\ccWIv0rg.s 			page 18


 581 00a0 0727     		movs	r7, #7
 582 00a2 B6E7     		b	.L25
 583              	.L29:
 584 00a4 0127     		movs	r7, #1
 585 00a6 B4E7     		b	.L25
 586              	.L35:
 322:Drivers/STM32L4xx_HAL_Driver/Src/stm32l4xx_hal_gpio.c ****                 EXTI->EMR1 &= ~(iocurrent);
 587              		.loc 1 322 17 is_stmt 1 view .LVU222
 322:Drivers/STM32L4xx_HAL_Driver/Src/stm32l4xx_hal_gpio.c ****                 EXTI->EMR1 &= ~(iocurrent);
 588              		.loc 1 322 28 is_stmt 0 view .LVU223
 589 00a8 104C     		ldr	r4, .L38+8
 590 00aa 2668     		ldr	r6, [r4]
 591              	.LVL56:
 322:Drivers/STM32L4xx_HAL_Driver/Src/stm32l4xx_hal_gpio.c ****                 EXTI->EMR1 &= ~(iocurrent);
 592              		.loc 1 322 28 view .LVU224
 593 00ac 26EA0E06 		bic	r6, r6, lr
 594 00b0 2660     		str	r6, [r4]
 323:Drivers/STM32L4xx_HAL_Driver/Src/stm32l4xx_hal_gpio.c **** 
 595              		.loc 1 323 17 is_stmt 1 view .LVU225
 323:Drivers/STM32L4xx_HAL_Driver/Src/stm32l4xx_hal_gpio.c **** 
 596              		.loc 1 323 28 is_stmt 0 view .LVU226
 597 00b2 6668     		ldr	r6, [r4, #4]
 598 00b4 26EA0E06 		bic	r6, r6, lr
 599 00b8 6660     		str	r6, [r4, #4]
 326:Drivers/STM32L4xx_HAL_Driver/Src/stm32l4xx_hal_gpio.c ****                 EXTI->FTSR1 &= ~(iocurrent);
 600              		.loc 1 326 17 is_stmt 1 view .LVU227
 326:Drivers/STM32L4xx_HAL_Driver/Src/stm32l4xx_hal_gpio.c ****                 EXTI->FTSR1 &= ~(iocurrent);
 601              		.loc 1 326 29 is_stmt 0 view .LVU228
 602 00ba A668     		ldr	r6, [r4, #8]
 603 00bc 26EA0E06 		bic	r6, r6, lr
 604 00c0 A660     		str	r6, [r4, #8]
 327:Drivers/STM32L4xx_HAL_Driver/Src/stm32l4xx_hal_gpio.c **** 
 605              		.loc 1 327 17 is_stmt 1 view .LVU229
 327:Drivers/STM32L4xx_HAL_Driver/Src/stm32l4xx_hal_gpio.c **** 
 606              		.loc 1 327 29 is_stmt 0 view .LVU230
 607 00c2 E668     		ldr	r6, [r4, #12]
 608 00c4 26EA0E06 		bic	r6, r6, lr
 609 00c8 E660     		str	r6, [r4, #12]
 329:Drivers/STM32L4xx_HAL_Driver/Src/stm32l4xx_hal_gpio.c ****                 SYSCFG->EXTICR[position >> 2u] &= ~tmp;
 610              		.loc 1 329 17 is_stmt 1 view .LVU231
 611              	.LVL57:
 330:Drivers/STM32L4xx_HAL_Driver/Src/stm32l4xx_hal_gpio.c ****             }
 612              		.loc 1 330 17 view .LVU232
 330:Drivers/STM32L4xx_HAL_Driver/Src/stm32l4xx_hal_gpio.c ****             }
 613              		.loc 1 330 48 is_stmt 0 view .LVU233
 614 00ca 064E     		ldr	r6, .L38
 615 00cc 0CF1020C 		add	ip, ip, #2
 616 00d0 56F82C40 		ldr	r4, [r6, ip, lsl #2]
 617 00d4 24EA0505 		bic	r5, r4, r5
 618              	.LVL58:
 330:Drivers/STM32L4xx_HAL_Driver/Src/stm32l4xx_hal_gpio.c ****             }
 619              		.loc 1 330 48 view .LVU234
 620 00d8 46F82C50 		str	r5, [r6, ip, lsl #2]
 621 00dc 9DE7     		b	.L26
 622              	.LVL59:
 623              	.L36:
 356:Drivers/STM32L4xx_HAL_Driver/Src/stm32l4xx_hal_gpio.c ****     }
ARM GAS  C:\cygwin64\tmp\ccWIv0rg.s 			page 19


 357:Drivers/STM32L4xx_HAL_Driver/Src/stm32l4xx_hal_gpio.c **** }
 624              		.loc 1 357 1 view .LVU235
 625 00de F0BD     		pop	{r4, r5, r6, r7, pc}
 626              	.LVL60:
 627              	.L34:
 628              	.LCFI4:
 629              		.cfi_def_cfa_offset 0
 630              		.cfi_restore 4
 631              		.cfi_restore 5
 632              		.cfi_restore 6
 633              		.cfi_restore 7
 634              		.cfi_restore 14
 635              		.loc 1 357 1 view .LVU236
 636 00e0 7047     		bx	lr
 637              	.L39:
 638 00e2 00BF     		.align	2
 639              	.L38:
 640 00e4 00000140 		.word	1073807360
 641 00e8 00040048 		.word	1207960576
 642 00ec 00040140 		.word	1073808384
 643              		.cfi_endproc
 644              	.LFE133:
 646              		.section	.text.HAL_GPIO_ReadPin,"ax",%progbits
 647              		.align	1
 648              		.global	HAL_GPIO_ReadPin
 649              		.syntax unified
 650              		.thumb
 651              		.thumb_func
 652              		.fpu fpv4-sp-d16
 654              	HAL_GPIO_ReadPin:
 655              	.LVL61:
 656              	.LFB134:
 358:Drivers/STM32L4xx_HAL_Driver/Src/stm32l4xx_hal_gpio.c **** 
 359:Drivers/STM32L4xx_HAL_Driver/Src/stm32l4xx_hal_gpio.c **** /**
 360:Drivers/STM32L4xx_HAL_Driver/Src/stm32l4xx_hal_gpio.c ****   * @}
 361:Drivers/STM32L4xx_HAL_Driver/Src/stm32l4xx_hal_gpio.c ****   */
 362:Drivers/STM32L4xx_HAL_Driver/Src/stm32l4xx_hal_gpio.c **** 
 363:Drivers/STM32L4xx_HAL_Driver/Src/stm32l4xx_hal_gpio.c **** /** @defgroup GPIO_Exported_Functions_Group2 IO operation functions
 364:Drivers/STM32L4xx_HAL_Driver/Src/stm32l4xx_hal_gpio.c ****  *  @brief GPIO Read, Write, Toggle, Lock and EXTI management functions.
 365:Drivers/STM32L4xx_HAL_Driver/Src/stm32l4xx_hal_gpio.c ****  *
 366:Drivers/STM32L4xx_HAL_Driver/Src/stm32l4xx_hal_gpio.c **** @verbatim
 367:Drivers/STM32L4xx_HAL_Driver/Src/stm32l4xx_hal_gpio.c ****  ===============================================================================
 368:Drivers/STM32L4xx_HAL_Driver/Src/stm32l4xx_hal_gpio.c ****                        ##### IO operation functions #####
 369:Drivers/STM32L4xx_HAL_Driver/Src/stm32l4xx_hal_gpio.c ****  ===============================================================================
 370:Drivers/STM32L4xx_HAL_Driver/Src/stm32l4xx_hal_gpio.c **** 
 371:Drivers/STM32L4xx_HAL_Driver/Src/stm32l4xx_hal_gpio.c **** @endverbatim
 372:Drivers/STM32L4xx_HAL_Driver/Src/stm32l4xx_hal_gpio.c ****   * @{
 373:Drivers/STM32L4xx_HAL_Driver/Src/stm32l4xx_hal_gpio.c ****   */
 374:Drivers/STM32L4xx_HAL_Driver/Src/stm32l4xx_hal_gpio.c **** 
 375:Drivers/STM32L4xx_HAL_Driver/Src/stm32l4xx_hal_gpio.c **** /**
 376:Drivers/STM32L4xx_HAL_Driver/Src/stm32l4xx_hal_gpio.c ****   * @brief  Read the specified input port pin.
 377:Drivers/STM32L4xx_HAL_Driver/Src/stm32l4xx_hal_gpio.c ****   * @param  GPIOx where x can be (A..H) to select the GPIO peripheral for STM32L4 family
 378:Drivers/STM32L4xx_HAL_Driver/Src/stm32l4xx_hal_gpio.c ****   * @param  GPIO_Pin specifies the port bit to read.
 379:Drivers/STM32L4xx_HAL_Driver/Src/stm32l4xx_hal_gpio.c ****   *         This parameter can be any combination of GPIO_Pin_x where x can be (0..15).
 380:Drivers/STM32L4xx_HAL_Driver/Src/stm32l4xx_hal_gpio.c ****   * @retval The input port pin value.
 381:Drivers/STM32L4xx_HAL_Driver/Src/stm32l4xx_hal_gpio.c ****   */
 382:Drivers/STM32L4xx_HAL_Driver/Src/stm32l4xx_hal_gpio.c **** GPIO_PinState HAL_GPIO_ReadPin(GPIO_TypeDef* GPIOx, uint16_t GPIO_Pin) {
ARM GAS  C:\cygwin64\tmp\ccWIv0rg.s 			page 20


 657              		.loc 1 382 72 is_stmt 1 view -0
 658              		.cfi_startproc
 659              		@ args = 0, pretend = 0, frame = 0
 660              		@ frame_needed = 0, uses_anonymous_args = 0
 661              		@ link register save eliminated.
 383:Drivers/STM32L4xx_HAL_Driver/Src/stm32l4xx_hal_gpio.c ****     GPIO_PinState bitstatus;
 662              		.loc 1 383 5 view .LVU238
 384:Drivers/STM32L4xx_HAL_Driver/Src/stm32l4xx_hal_gpio.c **** 
 385:Drivers/STM32L4xx_HAL_Driver/Src/stm32l4xx_hal_gpio.c ****     /* Check the parameters */
 386:Drivers/STM32L4xx_HAL_Driver/Src/stm32l4xx_hal_gpio.c ****     assert_param(IS_GPIO_PIN(GPIO_Pin));
 663              		.loc 1 386 5 view .LVU239
 387:Drivers/STM32L4xx_HAL_Driver/Src/stm32l4xx_hal_gpio.c **** 
 388:Drivers/STM32L4xx_HAL_Driver/Src/stm32l4xx_hal_gpio.c ****     if ((GPIOx->IDR & GPIO_Pin) != 0x00u) {
 664              		.loc 1 388 5 view .LVU240
 665              		.loc 1 388 15 is_stmt 0 view .LVU241
 666 0000 0369     		ldr	r3, [r0, #16]
 667              		.loc 1 388 8 view .LVU242
 668 0002 1942     		tst	r1, r3
 669 0004 01D0     		beq	.L42
 389:Drivers/STM32L4xx_HAL_Driver/Src/stm32l4xx_hal_gpio.c ****         bitstatus = GPIO_PIN_SET;
 670              		.loc 1 389 19 view .LVU243
 671 0006 0120     		movs	r0, #1
 672              	.LVL62:
 673              		.loc 1 389 19 view .LVU244
 674 0008 7047     		bx	lr
 675              	.LVL63:
 676              	.L42:
 390:Drivers/STM32L4xx_HAL_Driver/Src/stm32l4xx_hal_gpio.c ****     } else {
 391:Drivers/STM32L4xx_HAL_Driver/Src/stm32l4xx_hal_gpio.c ****         bitstatus = GPIO_PIN_RESET;
 677              		.loc 1 391 19 view .LVU245
 678 000a 0020     		movs	r0, #0
 679              	.LVL64:
 392:Drivers/STM32L4xx_HAL_Driver/Src/stm32l4xx_hal_gpio.c ****     }
 393:Drivers/STM32L4xx_HAL_Driver/Src/stm32l4xx_hal_gpio.c ****     return bitstatus;
 680              		.loc 1 393 5 is_stmt 1 view .LVU246
 394:Drivers/STM32L4xx_HAL_Driver/Src/stm32l4xx_hal_gpio.c **** }
 681              		.loc 1 394 1 is_stmt 0 view .LVU247
 682 000c 7047     		bx	lr
 683              		.cfi_endproc
 684              	.LFE134:
 686              		.section	.text.HAL_GPIO_WritePin,"ax",%progbits
 687              		.align	1
 688              		.global	HAL_GPIO_WritePin
 689              		.syntax unified
 690              		.thumb
 691              		.thumb_func
 692              		.fpu fpv4-sp-d16
 694              	HAL_GPIO_WritePin:
 695              	.LVL65:
 696              	.LFB135:
 395:Drivers/STM32L4xx_HAL_Driver/Src/stm32l4xx_hal_gpio.c **** 
 396:Drivers/STM32L4xx_HAL_Driver/Src/stm32l4xx_hal_gpio.c **** /**
 397:Drivers/STM32L4xx_HAL_Driver/Src/stm32l4xx_hal_gpio.c ****   * @brief  Set or clear the selected data port bit.
 398:Drivers/STM32L4xx_HAL_Driver/Src/stm32l4xx_hal_gpio.c ****   *
 399:Drivers/STM32L4xx_HAL_Driver/Src/stm32l4xx_hal_gpio.c ****   * @note   This function uses GPIOx_BSRR and GPIOx_BRR registers to allow atomic read/modify
 400:Drivers/STM32L4xx_HAL_Driver/Src/stm32l4xx_hal_gpio.c ****   *         accesses. In this way, there is no risk of an IRQ occurring between
 401:Drivers/STM32L4xx_HAL_Driver/Src/stm32l4xx_hal_gpio.c ****   *         the read and the modify access.
ARM GAS  C:\cygwin64\tmp\ccWIv0rg.s 			page 21


 402:Drivers/STM32L4xx_HAL_Driver/Src/stm32l4xx_hal_gpio.c ****   *
 403:Drivers/STM32L4xx_HAL_Driver/Src/stm32l4xx_hal_gpio.c ****   * @param  GPIOx where x can be (A..H) to select the GPIO peripheral for STM32L4 family
 404:Drivers/STM32L4xx_HAL_Driver/Src/stm32l4xx_hal_gpio.c ****   * @param  GPIO_Pin specifies the port bit to be written.
 405:Drivers/STM32L4xx_HAL_Driver/Src/stm32l4xx_hal_gpio.c ****   *         This parameter can be any combination of GPIO_Pin_x where x can be (0..15).
 406:Drivers/STM32L4xx_HAL_Driver/Src/stm32l4xx_hal_gpio.c ****   * @param  PinState specifies the value to be written to the selected bit.
 407:Drivers/STM32L4xx_HAL_Driver/Src/stm32l4xx_hal_gpio.c ****   *         This parameter can be one of the GPIO_PinState enum values:
 408:Drivers/STM32L4xx_HAL_Driver/Src/stm32l4xx_hal_gpio.c ****   *            @arg GPIO_PIN_RESET: to clear the port pin
 409:Drivers/STM32L4xx_HAL_Driver/Src/stm32l4xx_hal_gpio.c ****   *            @arg GPIO_PIN_SET: to set the port pin
 410:Drivers/STM32L4xx_HAL_Driver/Src/stm32l4xx_hal_gpio.c ****   * @retval None
 411:Drivers/STM32L4xx_HAL_Driver/Src/stm32l4xx_hal_gpio.c ****   */
 412:Drivers/STM32L4xx_HAL_Driver/Src/stm32l4xx_hal_gpio.c **** void HAL_GPIO_WritePin(GPIO_TypeDef* GPIOx, uint16_t GPIO_Pin, GPIO_PinState PinState) {
 697              		.loc 1 412 88 is_stmt 1 view -0
 698              		.cfi_startproc
 699              		@ args = 0, pretend = 0, frame = 0
 700              		@ frame_needed = 0, uses_anonymous_args = 0
 701              		@ link register save eliminated.
 413:Drivers/STM32L4xx_HAL_Driver/Src/stm32l4xx_hal_gpio.c ****     /* Check the parameters */
 414:Drivers/STM32L4xx_HAL_Driver/Src/stm32l4xx_hal_gpio.c ****     assert_param(IS_GPIO_PIN(GPIO_Pin));
 702              		.loc 1 414 5 view .LVU249
 415:Drivers/STM32L4xx_HAL_Driver/Src/stm32l4xx_hal_gpio.c ****     assert_param(IS_GPIO_PIN_ACTION(PinState));
 703              		.loc 1 415 5 view .LVU250
 416:Drivers/STM32L4xx_HAL_Driver/Src/stm32l4xx_hal_gpio.c **** 
 417:Drivers/STM32L4xx_HAL_Driver/Src/stm32l4xx_hal_gpio.c ****     if(PinState != GPIO_PIN_RESET) {
 704              		.loc 1 417 5 view .LVU251
 705              		.loc 1 417 7 is_stmt 0 view .LVU252
 706 0000 0AB1     		cbz	r2, .L44
 418:Drivers/STM32L4xx_HAL_Driver/Src/stm32l4xx_hal_gpio.c ****         GPIOx->BSRR = (uint32_t)GPIO_Pin;
 707              		.loc 1 418 9 is_stmt 1 view .LVU253
 708              		.loc 1 418 21 is_stmt 0 view .LVU254
 709 0002 8161     		str	r1, [r0, #24]
 710 0004 7047     		bx	lr
 711              	.L44:
 419:Drivers/STM32L4xx_HAL_Driver/Src/stm32l4xx_hal_gpio.c ****     } else {
 420:Drivers/STM32L4xx_HAL_Driver/Src/stm32l4xx_hal_gpio.c ****         GPIOx->BRR = (uint32_t)GPIO_Pin;
 712              		.loc 1 420 9 is_stmt 1 view .LVU255
 713              		.loc 1 420 20 is_stmt 0 view .LVU256
 714 0006 8162     		str	r1, [r0, #40]
 421:Drivers/STM32L4xx_HAL_Driver/Src/stm32l4xx_hal_gpio.c ****     }
 422:Drivers/STM32L4xx_HAL_Driver/Src/stm32l4xx_hal_gpio.c **** }
 715              		.loc 1 422 1 view .LVU257
 716 0008 7047     		bx	lr
 717              		.cfi_endproc
 718              	.LFE135:
 720              		.section	.text.HAL_GPIO_TogglePin,"ax",%progbits
 721              		.align	1
 722              		.global	HAL_GPIO_TogglePin
 723              		.syntax unified
 724              		.thumb
 725              		.thumb_func
 726              		.fpu fpv4-sp-d16
 728              	HAL_GPIO_TogglePin:
 729              	.LVL66:
 730              	.LFB136:
 423:Drivers/STM32L4xx_HAL_Driver/Src/stm32l4xx_hal_gpio.c **** 
 424:Drivers/STM32L4xx_HAL_Driver/Src/stm32l4xx_hal_gpio.c **** /**
 425:Drivers/STM32L4xx_HAL_Driver/Src/stm32l4xx_hal_gpio.c ****   * @brief  Toggle the specified GPIO pin.
 426:Drivers/STM32L4xx_HAL_Driver/Src/stm32l4xx_hal_gpio.c ****   * @param  GPIOx where x can be (A..H) to select the GPIO peripheral for STM32L4 family
ARM GAS  C:\cygwin64\tmp\ccWIv0rg.s 			page 22


 427:Drivers/STM32L4xx_HAL_Driver/Src/stm32l4xx_hal_gpio.c ****   * @param  GPIO_Pin specifies the pin to be toggled.
 428:Drivers/STM32L4xx_HAL_Driver/Src/stm32l4xx_hal_gpio.c ****   * @retval None
 429:Drivers/STM32L4xx_HAL_Driver/Src/stm32l4xx_hal_gpio.c ****   */
 430:Drivers/STM32L4xx_HAL_Driver/Src/stm32l4xx_hal_gpio.c **** void HAL_GPIO_TogglePin(GPIO_TypeDef* GPIOx, uint16_t GPIO_Pin) {
 731              		.loc 1 430 65 is_stmt 1 view -0
 732              		.cfi_startproc
 733              		@ args = 0, pretend = 0, frame = 0
 734              		@ frame_needed = 0, uses_anonymous_args = 0
 735              		@ link register save eliminated.
 431:Drivers/STM32L4xx_HAL_Driver/Src/stm32l4xx_hal_gpio.c ****     uint32_t odr;
 736              		.loc 1 431 5 view .LVU259
 432:Drivers/STM32L4xx_HAL_Driver/Src/stm32l4xx_hal_gpio.c **** 
 433:Drivers/STM32L4xx_HAL_Driver/Src/stm32l4xx_hal_gpio.c ****     /* Check the parameters */
 434:Drivers/STM32L4xx_HAL_Driver/Src/stm32l4xx_hal_gpio.c ****     assert_param(IS_GPIO_PIN(GPIO_Pin));
 737              		.loc 1 434 5 view .LVU260
 435:Drivers/STM32L4xx_HAL_Driver/Src/stm32l4xx_hal_gpio.c **** 
 436:Drivers/STM32L4xx_HAL_Driver/Src/stm32l4xx_hal_gpio.c ****     /* get current Ouput Data Register value */
 437:Drivers/STM32L4xx_HAL_Driver/Src/stm32l4xx_hal_gpio.c ****     odr = GPIOx->ODR;
 738              		.loc 1 437 5 view .LVU261
 739              		.loc 1 437 9 is_stmt 0 view .LVU262
 740 0000 4369     		ldr	r3, [r0, #20]
 741              	.LVL67:
 438:Drivers/STM32L4xx_HAL_Driver/Src/stm32l4xx_hal_gpio.c **** 
 439:Drivers/STM32L4xx_HAL_Driver/Src/stm32l4xx_hal_gpio.c ****     /* Set selected pins that were at low level, and reset ones that were high */
 440:Drivers/STM32L4xx_HAL_Driver/Src/stm32l4xx_hal_gpio.c ****     GPIOx->BSRR = ((odr & GPIO_Pin) << GPIO_NUMBER) | (~odr & GPIO_Pin);
 742              		.loc 1 440 5 is_stmt 1 view .LVU263
 743              		.loc 1 440 25 is_stmt 0 view .LVU264
 744 0002 01EA0302 		and	r2, r1, r3
 745              		.loc 1 440 61 view .LVU265
 746 0006 21EA0301 		bic	r1, r1, r3
 747              	.LVL68:
 748              		.loc 1 440 53 view .LVU266
 749 000a 41EA0241 		orr	r1, r1, r2, lsl #16
 750              		.loc 1 440 17 view .LVU267
 751 000e 8161     		str	r1, [r0, #24]
 441:Drivers/STM32L4xx_HAL_Driver/Src/stm32l4xx_hal_gpio.c **** }
 752              		.loc 1 441 1 view .LVU268
 753 0010 7047     		bx	lr
 754              		.cfi_endproc
 755              	.LFE136:
 757              		.section	.text.HAL_GPIO_LockPin,"ax",%progbits
 758              		.align	1
 759              		.global	HAL_GPIO_LockPin
 760              		.syntax unified
 761              		.thumb
 762              		.thumb_func
 763              		.fpu fpv4-sp-d16
 765              	HAL_GPIO_LockPin:
 766              	.LVL69:
 767              	.LFB137:
 442:Drivers/STM32L4xx_HAL_Driver/Src/stm32l4xx_hal_gpio.c **** 
 443:Drivers/STM32L4xx_HAL_Driver/Src/stm32l4xx_hal_gpio.c **** /**
 444:Drivers/STM32L4xx_HAL_Driver/Src/stm32l4xx_hal_gpio.c **** * @brief  Lock GPIO Pins configuration registers.
 445:Drivers/STM32L4xx_HAL_Driver/Src/stm32l4xx_hal_gpio.c ****   * @note   The locked registers are GPIOx_MODER, GPIOx_OTYPER, GPIOx_OSPEEDR,
 446:Drivers/STM32L4xx_HAL_Driver/Src/stm32l4xx_hal_gpio.c ****   *         GPIOx_PUPDR, GPIOx_AFRL and GPIOx_AFRH.
 447:Drivers/STM32L4xx_HAL_Driver/Src/stm32l4xx_hal_gpio.c ****   * @note   The configuration of the locked GPIO pins can no longer be modified
 448:Drivers/STM32L4xx_HAL_Driver/Src/stm32l4xx_hal_gpio.c ****   *         until the next reset.
ARM GAS  C:\cygwin64\tmp\ccWIv0rg.s 			page 23


 449:Drivers/STM32L4xx_HAL_Driver/Src/stm32l4xx_hal_gpio.c ****   * @param  GPIOx where x can be (A..H) to select the GPIO peripheral for STM32L4 family
 450:Drivers/STM32L4xx_HAL_Driver/Src/stm32l4xx_hal_gpio.c ****   * @param  GPIO_Pin specifies the port bits to be locked.
 451:Drivers/STM32L4xx_HAL_Driver/Src/stm32l4xx_hal_gpio.c ****   *         This parameter can be any combination of GPIO_Pin_x where x can be (0..15).
 452:Drivers/STM32L4xx_HAL_Driver/Src/stm32l4xx_hal_gpio.c ****   * @retval None
 453:Drivers/STM32L4xx_HAL_Driver/Src/stm32l4xx_hal_gpio.c ****   */
 454:Drivers/STM32L4xx_HAL_Driver/Src/stm32l4xx_hal_gpio.c **** HAL_StatusTypeDef HAL_GPIO_LockPin(GPIO_TypeDef* GPIOx, uint16_t GPIO_Pin) {
 768              		.loc 1 454 76 is_stmt 1 view -0
 769              		.cfi_startproc
 770              		@ args = 0, pretend = 0, frame = 8
 771              		@ frame_needed = 0, uses_anonymous_args = 0
 772              		@ link register save eliminated.
 773              		.loc 1 454 76 is_stmt 0 view .LVU270
 774 0000 82B0     		sub	sp, sp, #8
 775              	.LCFI5:
 776              		.cfi_def_cfa_offset 8
 455:Drivers/STM32L4xx_HAL_Driver/Src/stm32l4xx_hal_gpio.c ****     __IO uint32_t tmp = GPIO_LCKR_LCKK;
 777              		.loc 1 455 5 is_stmt 1 view .LVU271
 778              		.loc 1 455 19 is_stmt 0 view .LVU272
 779 0002 4FF48033 		mov	r3, #65536
 780 0006 0193     		str	r3, [sp, #4]
 456:Drivers/STM32L4xx_HAL_Driver/Src/stm32l4xx_hal_gpio.c **** 
 457:Drivers/STM32L4xx_HAL_Driver/Src/stm32l4xx_hal_gpio.c ****     /* Check the parameters */
 458:Drivers/STM32L4xx_HAL_Driver/Src/stm32l4xx_hal_gpio.c ****     assert_param(IS_GPIO_LOCK_INSTANCE(GPIOx));
 781              		.loc 1 458 5 is_stmt 1 view .LVU273
 459:Drivers/STM32L4xx_HAL_Driver/Src/stm32l4xx_hal_gpio.c ****     assert_param(IS_GPIO_PIN(GPIO_Pin));
 782              		.loc 1 459 5 view .LVU274
 460:Drivers/STM32L4xx_HAL_Driver/Src/stm32l4xx_hal_gpio.c **** 
 461:Drivers/STM32L4xx_HAL_Driver/Src/stm32l4xx_hal_gpio.c ****     /* Apply lock key write sequence */
 462:Drivers/STM32L4xx_HAL_Driver/Src/stm32l4xx_hal_gpio.c ****     tmp |= GPIO_Pin;
 783              		.loc 1 462 5 view .LVU275
 784              		.loc 1 462 9 is_stmt 0 view .LVU276
 785 0008 019B     		ldr	r3, [sp, #4]
 786 000a 0B43     		orrs	r3, r3, r1
 787 000c 0193     		str	r3, [sp, #4]
 463:Drivers/STM32L4xx_HAL_Driver/Src/stm32l4xx_hal_gpio.c ****     /* Set LCKx bit(s): LCKK='1' + LCK[15-0] */
 464:Drivers/STM32L4xx_HAL_Driver/Src/stm32l4xx_hal_gpio.c ****     GPIOx->LCKR = tmp;
 788              		.loc 1 464 5 is_stmt 1 view .LVU277
 789              		.loc 1 464 17 is_stmt 0 view .LVU278
 790 000e 019B     		ldr	r3, [sp, #4]
 791 0010 C361     		str	r3, [r0, #28]
 465:Drivers/STM32L4xx_HAL_Driver/Src/stm32l4xx_hal_gpio.c ****     /* Reset LCKx bit(s): LCKK='0' + LCK[15-0] */
 466:Drivers/STM32L4xx_HAL_Driver/Src/stm32l4xx_hal_gpio.c ****     GPIOx->LCKR = GPIO_Pin;
 792              		.loc 1 466 5 is_stmt 1 view .LVU279
 793              		.loc 1 466 17 is_stmt 0 view .LVU280
 794 0012 C161     		str	r1, [r0, #28]
 467:Drivers/STM32L4xx_HAL_Driver/Src/stm32l4xx_hal_gpio.c ****     /* Set LCKx bit(s): LCKK='1' + LCK[15-0] */
 468:Drivers/STM32L4xx_HAL_Driver/Src/stm32l4xx_hal_gpio.c ****     GPIOx->LCKR = tmp;
 795              		.loc 1 468 5 is_stmt 1 view .LVU281
 796              		.loc 1 468 17 is_stmt 0 view .LVU282
 797 0014 019B     		ldr	r3, [sp, #4]
 798 0016 C361     		str	r3, [r0, #28]
 469:Drivers/STM32L4xx_HAL_Driver/Src/stm32l4xx_hal_gpio.c ****     /* Read LCKK register. This read is mandatory to complete key lock sequence */
 470:Drivers/STM32L4xx_HAL_Driver/Src/stm32l4xx_hal_gpio.c ****     tmp = GPIOx->LCKR;
 799              		.loc 1 470 5 is_stmt 1 view .LVU283
 800              		.loc 1 470 16 is_stmt 0 view .LVU284
 801 0018 C369     		ldr	r3, [r0, #28]
 802              		.loc 1 470 9 view .LVU285
ARM GAS  C:\cygwin64\tmp\ccWIv0rg.s 			page 24


 803 001a 0193     		str	r3, [sp, #4]
 471:Drivers/STM32L4xx_HAL_Driver/Src/stm32l4xx_hal_gpio.c **** 
 472:Drivers/STM32L4xx_HAL_Driver/Src/stm32l4xx_hal_gpio.c ****     /* Read again in order to confirm lock is active */
 473:Drivers/STM32L4xx_HAL_Driver/Src/stm32l4xx_hal_gpio.c ****     if ((GPIOx->LCKR & GPIO_LCKR_LCKK) != 0x00u) {
 804              		.loc 1 473 5 is_stmt 1 view .LVU286
 805              		.loc 1 473 15 is_stmt 0 view .LVU287
 806 001c C369     		ldr	r3, [r0, #28]
 807              		.loc 1 473 8 view .LVU288
 808 001e 13F4803F 		tst	r3, #65536
 809 0022 02D0     		beq	.L49
 474:Drivers/STM32L4xx_HAL_Driver/Src/stm32l4xx_hal_gpio.c ****         return HAL_OK;
 810              		.loc 1 474 16 view .LVU289
 811 0024 0020     		movs	r0, #0
 812              	.LVL70:
 813              	.L48:
 475:Drivers/STM32L4xx_HAL_Driver/Src/stm32l4xx_hal_gpio.c ****     } else {
 476:Drivers/STM32L4xx_HAL_Driver/Src/stm32l4xx_hal_gpio.c ****         return HAL_ERROR;
 477:Drivers/STM32L4xx_HAL_Driver/Src/stm32l4xx_hal_gpio.c ****     }
 478:Drivers/STM32L4xx_HAL_Driver/Src/stm32l4xx_hal_gpio.c **** }
 814              		.loc 1 478 1 view .LVU290
 815 0026 02B0     		add	sp, sp, #8
 816              	.LCFI6:
 817              		.cfi_remember_state
 818              		.cfi_def_cfa_offset 0
 819              		@ sp needed
 820 0028 7047     		bx	lr
 821              	.LVL71:
 822              	.L49:
 823              	.LCFI7:
 824              		.cfi_restore_state
 476:Drivers/STM32L4xx_HAL_Driver/Src/stm32l4xx_hal_gpio.c ****     }
 825              		.loc 1 476 16 view .LVU291
 826 002a 0120     		movs	r0, #1
 827              	.LVL72:
 476:Drivers/STM32L4xx_HAL_Driver/Src/stm32l4xx_hal_gpio.c ****     }
 828              		.loc 1 476 16 view .LVU292
 829 002c FBE7     		b	.L48
 830              		.cfi_endproc
 831              	.LFE137:
 833              		.section	.text.HAL_GPIO_EXTI_Callback,"ax",%progbits
 834              		.align	1
 835              		.weak	HAL_GPIO_EXTI_Callback
 836              		.syntax unified
 837              		.thumb
 838              		.thumb_func
 839              		.fpu fpv4-sp-d16
 841              	HAL_GPIO_EXTI_Callback:
 842              	.LVL73:
 843              	.LFB139:
 479:Drivers/STM32L4xx_HAL_Driver/Src/stm32l4xx_hal_gpio.c **** 
 480:Drivers/STM32L4xx_HAL_Driver/Src/stm32l4xx_hal_gpio.c **** /**
 481:Drivers/STM32L4xx_HAL_Driver/Src/stm32l4xx_hal_gpio.c ****   * @brief  Handle EXTI interrupt request.
 482:Drivers/STM32L4xx_HAL_Driver/Src/stm32l4xx_hal_gpio.c ****   * @param  GPIO_Pin Specifies the port pin connected to corresponding EXTI line.
 483:Drivers/STM32L4xx_HAL_Driver/Src/stm32l4xx_hal_gpio.c ****   * @retval None
 484:Drivers/STM32L4xx_HAL_Driver/Src/stm32l4xx_hal_gpio.c ****   */
 485:Drivers/STM32L4xx_HAL_Driver/Src/stm32l4xx_hal_gpio.c **** void HAL_GPIO_EXTI_IRQHandler(uint16_t GPIO_Pin) {
 486:Drivers/STM32L4xx_HAL_Driver/Src/stm32l4xx_hal_gpio.c ****     /* EXTI line interrupt detected */
ARM GAS  C:\cygwin64\tmp\ccWIv0rg.s 			page 25


 487:Drivers/STM32L4xx_HAL_Driver/Src/stm32l4xx_hal_gpio.c ****     if(__HAL_GPIO_EXTI_GET_IT(GPIO_Pin) != 0x00u) {
 488:Drivers/STM32L4xx_HAL_Driver/Src/stm32l4xx_hal_gpio.c ****         __HAL_GPIO_EXTI_CLEAR_IT(GPIO_Pin);
 489:Drivers/STM32L4xx_HAL_Driver/Src/stm32l4xx_hal_gpio.c ****         HAL_GPIO_EXTI_Callback(GPIO_Pin);
 490:Drivers/STM32L4xx_HAL_Driver/Src/stm32l4xx_hal_gpio.c ****     }
 491:Drivers/STM32L4xx_HAL_Driver/Src/stm32l4xx_hal_gpio.c **** }
 492:Drivers/STM32L4xx_HAL_Driver/Src/stm32l4xx_hal_gpio.c **** 
 493:Drivers/STM32L4xx_HAL_Driver/Src/stm32l4xx_hal_gpio.c **** /**
 494:Drivers/STM32L4xx_HAL_Driver/Src/stm32l4xx_hal_gpio.c ****   * @brief  EXTI line detection callback.
 495:Drivers/STM32L4xx_HAL_Driver/Src/stm32l4xx_hal_gpio.c ****   * @param  GPIO_Pin Specifies the port pin connected to corresponding EXTI line.
 496:Drivers/STM32L4xx_HAL_Driver/Src/stm32l4xx_hal_gpio.c ****   * @retval None
 497:Drivers/STM32L4xx_HAL_Driver/Src/stm32l4xx_hal_gpio.c ****   */
 498:Drivers/STM32L4xx_HAL_Driver/Src/stm32l4xx_hal_gpio.c **** __weak void HAL_GPIO_EXTI_Callback(uint16_t GPIO_Pin) {
 844              		.loc 1 498 55 is_stmt 1 view -0
 845              		.cfi_startproc
 846              		@ args = 0, pretend = 0, frame = 0
 847              		@ frame_needed = 0, uses_anonymous_args = 0
 848              		@ link register save eliminated.
 499:Drivers/STM32L4xx_HAL_Driver/Src/stm32l4xx_hal_gpio.c ****     /* Prevent unused argument(s) compilation warning */
 500:Drivers/STM32L4xx_HAL_Driver/Src/stm32l4xx_hal_gpio.c ****     UNUSED(GPIO_Pin);
 849              		.loc 1 500 5 view .LVU294
 501:Drivers/STM32L4xx_HAL_Driver/Src/stm32l4xx_hal_gpio.c **** 
 502:Drivers/STM32L4xx_HAL_Driver/Src/stm32l4xx_hal_gpio.c ****     /* NOTE: This function should not be modified, when the callback is needed,
 503:Drivers/STM32L4xx_HAL_Driver/Src/stm32l4xx_hal_gpio.c ****              the HAL_GPIO_EXTI_Callback could be implemented in the user file
 504:Drivers/STM32L4xx_HAL_Driver/Src/stm32l4xx_hal_gpio.c ****      */
 505:Drivers/STM32L4xx_HAL_Driver/Src/stm32l4xx_hal_gpio.c **** }
 850              		.loc 1 505 1 is_stmt 0 view .LVU295
 851 0000 7047     		bx	lr
 852              		.cfi_endproc
 853              	.LFE139:
 855              		.section	.text.HAL_GPIO_EXTI_IRQHandler,"ax",%progbits
 856              		.align	1
 857              		.global	HAL_GPIO_EXTI_IRQHandler
 858              		.syntax unified
 859              		.thumb
 860              		.thumb_func
 861              		.fpu fpv4-sp-d16
 863              	HAL_GPIO_EXTI_IRQHandler:
 864              	.LVL74:
 865              	.LFB138:
 485:Drivers/STM32L4xx_HAL_Driver/Src/stm32l4xx_hal_gpio.c ****     /* EXTI line interrupt detected */
 866              		.loc 1 485 50 is_stmt 1 view -0
 867              		.cfi_startproc
 868              		@ args = 0, pretend = 0, frame = 0
 869              		@ frame_needed = 0, uses_anonymous_args = 0
 485:Drivers/STM32L4xx_HAL_Driver/Src/stm32l4xx_hal_gpio.c ****     /* EXTI line interrupt detected */
 870              		.loc 1 485 50 is_stmt 0 view .LVU297
 871 0000 08B5     		push	{r3, lr}
 872              	.LCFI8:
 873              		.cfi_def_cfa_offset 8
 874              		.cfi_offset 3, -8
 875              		.cfi_offset 14, -4
 487:Drivers/STM32L4xx_HAL_Driver/Src/stm32l4xx_hal_gpio.c ****         __HAL_GPIO_EXTI_CLEAR_IT(GPIO_Pin);
 876              		.loc 1 487 5 is_stmt 1 view .LVU298
 487:Drivers/STM32L4xx_HAL_Driver/Src/stm32l4xx_hal_gpio.c ****         __HAL_GPIO_EXTI_CLEAR_IT(GPIO_Pin);
 877              		.loc 1 487 8 is_stmt 0 view .LVU299
 878 0002 054B     		ldr	r3, .L56
 879 0004 5B69     		ldr	r3, [r3, #20]
ARM GAS  C:\cygwin64\tmp\ccWIv0rg.s 			page 26


 487:Drivers/STM32L4xx_HAL_Driver/Src/stm32l4xx_hal_gpio.c ****         __HAL_GPIO_EXTI_CLEAR_IT(GPIO_Pin);
 880              		.loc 1 487 7 view .LVU300
 881 0006 0342     		tst	r3, r0
 882 0008 00D1     		bne	.L55
 883              	.LVL75:
 884              	.L52:
 491:Drivers/STM32L4xx_HAL_Driver/Src/stm32l4xx_hal_gpio.c **** 
 885              		.loc 1 491 1 view .LVU301
 886 000a 08BD     		pop	{r3, pc}
 887              	.LVL76:
 888              	.L55:
 488:Drivers/STM32L4xx_HAL_Driver/Src/stm32l4xx_hal_gpio.c ****         HAL_GPIO_EXTI_Callback(GPIO_Pin);
 889              		.loc 1 488 9 is_stmt 1 view .LVU302
 890 000c 024B     		ldr	r3, .L56
 891 000e 5861     		str	r0, [r3, #20]
 489:Drivers/STM32L4xx_HAL_Driver/Src/stm32l4xx_hal_gpio.c ****     }
 892              		.loc 1 489 9 view .LVU303
 893 0010 FFF7FEFF 		bl	HAL_GPIO_EXTI_Callback
 894              	.LVL77:
 491:Drivers/STM32L4xx_HAL_Driver/Src/stm32l4xx_hal_gpio.c **** 
 895              		.loc 1 491 1 is_stmt 0 view .LVU304
 896 0014 F9E7     		b	.L52
 897              	.L57:
 898 0016 00BF     		.align	2
 899              	.L56:
 900 0018 00040140 		.word	1073808384
 901              		.cfi_endproc
 902              	.LFE138:
 904              		.text
 905              	.Letext0:
 906              		.file 2 "c:\\gnu_tools_arm_embedded\\9_2019_q4\\arm-none-eabi\\include\\machine\\_default_types.h"
 907              		.file 3 "c:\\gnu_tools_arm_embedded\\9_2019_q4\\arm-none-eabi\\include\\sys\\_stdint.h"
 908              		.file 4 "Drivers/CMSIS/Include/core_cm4.h"
 909              		.file 5 "Drivers/CMSIS/Device/ST/STM32L4xx/Include/system_stm32l4xx.h"
 910              		.file 6 "Drivers/CMSIS/Device/ST/STM32L4xx/Include/stm32l432xx.h"
 911              		.file 7 "Drivers/STM32L4xx_HAL_Driver/Inc/stm32l4xx_hal_def.h"
 912              		.file 8 "Drivers/STM32L4xx_HAL_Driver/Inc/stm32l4xx_hal_gpio.h"
 913              		.file 9 "Drivers/STM32L4xx_HAL_Driver/Inc/stm32l4xx_hal_flash.h"
 914              		.file 10 "Drivers/STM32L4xx_HAL_Driver/Inc/stm32l4xx_hal.h"
ARM GAS  C:\cygwin64\tmp\ccWIv0rg.s 			page 27

